libkyotocabinet.so.9 libkyotocabinet9 #MINVER#
 KCVERSION@Base 1.2.31
 KCVISNOP@Base 1.2.31
 KCVISREMOVE@Base 1.2.31
 _ZN12kyotocabinet10ComparatorC2Ev@Base 1.2.31
 _ZN12kyotocabinet10ComparatorD0Ev@Base 1.2.31
 _ZN12kyotocabinet10ComparatorD1Ev@Base 1.2.31
 _ZN12kyotocabinet10ComparatorD2Ev@Base 1.2.31
 _ZN12kyotocabinet10CompressorC2Ev@Base 1.2.31
 _ZN12kyotocabinet10CompressorD0Ev@Base 1.2.31
 _ZN12kyotocabinet10CompressorD1Ev@Base 1.2.31
 _ZN12kyotocabinet10CompressorD2Ev@Base 1.2.31
 _ZN12kyotocabinet10SpinRWLock11lock_readerEv@Base 1.2.31
 _ZN12kyotocabinet10SpinRWLock11lock_writerEv@Base 1.2.31
 _ZN12kyotocabinet10SpinRWLock15lock_reader_tryEv@Base 1.2.31
 _ZN12kyotocabinet10SpinRWLock15lock_writer_tryEv@Base 1.2.31
 _ZN12kyotocabinet10SpinRWLock6demoteEv@Base 1.2.31
 _ZN12kyotocabinet10SpinRWLock6unlockEv@Base 1.2.31
 _ZN12kyotocabinet10SpinRWLock7promoteEv@Base 1.2.31
 _ZN12kyotocabinet10SpinRWLockC1Ev@Base 1.2.31
 _ZN12kyotocabinet10SpinRWLockC2Ev@Base 1.2.31
 _ZN12kyotocabinet10SpinRWLockD1Ev@Base 1.2.31
 _ZN12kyotocabinet10SpinRWLockD2Ev@Base 1.2.31
 _ZN12kyotocabinet10WALMessageC1ERKS0_@Base 1.2.31
 _ZN12kyotocabinet10WALMessageD1Ev@Base 1.2.31
 _ZN12kyotocabinet10WALMessageaSERKS0_@Base 1.2.31
 _ZN12kyotocabinet10getsysinfoEPSt3mapISsSsSt4lessISsESaISt4pairIKSsSsEEE@Base 1.2.31
 _ZN12kyotocabinet10hashmurmurEPKvm@Base 1.2.31
 _ZN12kyotocabinet10readfixnumEPKvm@Base 1.2.31
 _ZN12kyotocabinet10readvarnumEPKvmPm@Base 1.2.31
 _ZN12kyotocabinet10sizevarnumEm@Base 1.2.31
 _ZN12kyotocabinet10vstrprintfEPSsPKcP13__va_list_tag@Base 1.2.31
 _ZN12kyotocabinet11AtomicInt6412secure_leastEl@Base 1.2.31
 _ZN12kyotocabinet11AtomicInt643addEl@Base 1.2.31
 _ZN12kyotocabinet11AtomicInt643casEll@Base 1.2.31
 _ZN12kyotocabinet11AtomicInt643setEl@Base 1.2.31
 _ZN12kyotocabinet11AtomicInt64C1El@Base 1.2.31
 _ZN12kyotocabinet11AtomicInt64D1Ev@Base 1.2.31
 _ZN12kyotocabinet11AtomicInt64aSERKS0_@Base 1.2.31
 _ZN12kyotocabinet11AtomicInt64aSERKl@Base 1.2.31
 _ZN12kyotocabinet11AtomicInt64mIEl@Base 1.2.31
 _ZN12kyotocabinet11AtomicInt64pLEl@Base 1.2.31
 _ZN12kyotocabinet11DECIMALCOMPE@Base 1.2.31
 _ZN12kyotocabinet11LEXICALCOMPE@Base 1.2.31
 _ZN12kyotocabinet11ScopedMutexC1EPNS_5MutexE@Base 1.2.31
 _ZN12kyotocabinet11ScopedMutexD1Ev@Base 1.2.31
 _ZN12kyotocabinet11ZLIBRAWCOMPE@Base 1.2.31
 _ZN12kyotocabinet11decimalfuncE@Base 1.2.40
 _ZN12kyotocabinet11lexicalfuncE@Base 1.2.40
 _ZN12kyotocabinet11nearbyprimeEm@Base 1.2.31
 _ZN12kyotocabinet11setstdiobinEv@Base 1.2.31
 _ZN12kyotocabinet11writefixnumEPvmm@Base 1.2.31
 _ZN12kyotocabinet11writevarnumEPvm@Base 1.2.31
 _ZN12kyotocabinet11zlibrawfuncE@Base 1.2.40
 _ZN12kyotocabinet12SlottedMutex10unlock_allEv@Base 1.2.36
 _ZN12kyotocabinet12SlottedMutex4lockEm@Base 1.2.36
 _ZN12kyotocabinet12SlottedMutex6unlockEm@Base 1.2.36
 _ZN12kyotocabinet12SlottedMutex8lock_allEv@Base 1.2.36
 _ZN12kyotocabinet12SlottedMutexC1Em@Base 1.2.36
 _ZN12kyotocabinet12SlottedMutexC2Em@Base 1.2.36
 _ZN12kyotocabinet12SlottedMutexD1Ev@Base 1.2.36
 _ZN12kyotocabinet12SlottedMutexD2Ev@Base 1.2.36
 _ZN12kyotocabinet12lzo_init_varE@Base 1.2.31
 _ZN12kyotocabinet13DirStreamCoreC1Ev@Base 1.2.31
 _ZN12kyotocabinet13DirStreamCoreD1Ev@Base 1.2.31
 _ZN12kyotocabinet13LZOCompressorILNS_3LZO4ModeE0EE10decompressEPKvmPm@Base 1.2.31
 _ZN12kyotocabinet13LZOCompressorILNS_3LZO4ModeE0EE8compressEPKvmPm@Base 1.2.31
 _ZN12kyotocabinet13LZOCompressorILNS_3LZO4ModeE0EEC1Ev@Base 1.2.31
 _ZN12kyotocabinet13LZOCompressorILNS_3LZO4ModeE0EED0Ev@Base 1.2.31
 _ZN12kyotocabinet13LZOCompressorILNS_3LZO4ModeE0EED1Ev@Base 1.2.31
 _ZN12kyotocabinet13LZOCompressorILNS_3LZO4ModeE1EE10decompressEPKvmPm@Base 1.2.31
 _ZN12kyotocabinet13LZOCompressorILNS_3LZO4ModeE1EE8compressEPKvmPm@Base 1.2.31
 _ZN12kyotocabinet13LZOCompressorILNS_3LZO4ModeE1EEC1Ev@Base 1.2.31
 _ZN12kyotocabinet13LZOCompressorILNS_3LZO4ModeE1EED0Ev@Base 1.2.31
 _ZN12kyotocabinet13LZOCompressorILNS_3LZO4ModeE1EED1Ev@Base 1.2.31
 _ZN12kyotocabinet13LinkedHashMapIlPNS_7PlantDBINS_5DirDBELh65EE8LeafNodeENSt3tr14hashIlEESt8equal_toIlEE10initializeEv@Base 1.2.31
 _ZN12kyotocabinet13LinkedHashMapIlPNS_7PlantDBINS_5DirDBELh65EE8LeafNodeENSt3tr14hashIlEESt8equal_toIlEE11first_valueEv@Base 1.2.31
 _ZN12kyotocabinet13LinkedHashMapIlPNS_7PlantDBINS_5DirDBELh65EE8LeafNodeENSt3tr14hashIlEESt8equal_toIlEE3endEv@Base 1.2.31
 _ZN12kyotocabinet13LinkedHashMapIlPNS_7PlantDBINS_5DirDBELh65EE8LeafNodeENSt3tr14hashIlEESt8equal_toIlEE3getERKlNSB_8MoveModeE@Base 1.2.31
 _ZN12kyotocabinet13LinkedHashMapIlPNS_7PlantDBINS_5DirDBELh65EE8LeafNodeENSt3tr14hashIlEESt8equal_toIlEE3setERKlRKS5_NSB_8MoveModeE@Base 1.2.31
 _ZN12kyotocabinet13LinkedHashMapIlPNS_7PlantDBINS_5DirDBELh65EE8LeafNodeENSt3tr14hashIlEESt8equal_toIlEE5beginEv@Base 1.2.31
 _ZN12kyotocabinet13LinkedHashMapIlPNS_7PlantDBINS_5DirDBELh65EE8LeafNodeENSt3tr14hashIlEESt8equal_toIlEE5countEv@Base 1.2.31
 _ZN12kyotocabinet13LinkedHashMapIlPNS_7PlantDBINS_5DirDBELh65EE8LeafNodeENSt3tr14hashIlEESt8equal_toIlEE6RecordC1ERKlRKS5_@Base 1.2.31
 _ZN12kyotocabinet13LinkedHashMapIlPNS_7PlantDBINS_5DirDBELh65EE8LeafNodeENSt3tr14hashIlEESt8equal_toIlEE6removeERKl@Base 1.2.31
 _ZN12kyotocabinet13LinkedHashMapIlPNS_7PlantDBINS_5DirDBELh65EE8LeafNodeENSt3tr14hashIlEESt8equal_toIlEE7destroyEv@Base 1.2.31
 _ZN12kyotocabinet13LinkedHashMapIlPNS_7PlantDBINS_5DirDBELh65EE8LeafNodeENSt3tr14hashIlEESt8equal_toIlEE7migrateERKlPSB_NSB_8MoveModeE@Base 1.2.31
 _ZN12kyotocabinet13LinkedHashMapIlPNS_7PlantDBINS_5DirDBELh65EE8LeafNodeENSt3tr14hashIlEESt8equal_toIlEE8Iterator5valueEv@Base 1.2.31
 _ZN12kyotocabinet13LinkedHashMapIlPNS_7PlantDBINS_5DirDBELh65EE8LeafNodeENSt3tr14hashIlEESt8equal_toIlEE8IteratorC1EPSB_PNSB_6RecordE@Base 1.2.31
 _ZN12kyotocabinet13LinkedHashMapIlPNS_7PlantDBINS_5DirDBELh65EE8LeafNodeENSt3tr14hashIlEESt8equal_toIlEE8IteratorC1ERKSC_@Base 1.2.31
 _ZN12kyotocabinet13LinkedHashMapIlPNS_7PlantDBINS_5DirDBELh65EE8LeafNodeENSt3tr14hashIlEESt8equal_toIlEE8IteratoraSERKSC_@Base 1.2.31
 _ZN12kyotocabinet13LinkedHashMapIlPNS_7PlantDBINS_5DirDBELh65EE8LeafNodeENSt3tr14hashIlEESt8equal_toIlEE8IteratorppEi@Base 1.2.31
 _ZN12kyotocabinet13LinkedHashMapIlPNS_7PlantDBINS_5DirDBELh65EE8LeafNodeENSt3tr14hashIlEESt8equal_toIlEE9first_keyEv@Base 1.2.31
 _ZN12kyotocabinet13LinkedHashMapIlPNS_7PlantDBINS_5DirDBELh65EE8LeafNodeENSt3tr14hashIlEESt8equal_toIlEEC1Em@Base 1.2.31
 _ZN12kyotocabinet13LinkedHashMapIlPNS_7PlantDBINS_5DirDBELh65EE8LeafNodeENSt3tr14hashIlEESt8equal_toIlEED1Ev@Base 1.2.31
 _ZN12kyotocabinet13LinkedHashMapIlPNS_7PlantDBINS_5DirDBELh65EE9InnerNodeENSt3tr14hashIlEESt8equal_toIlEE10initializeEv@Base 1.2.31
 _ZN12kyotocabinet13LinkedHashMapIlPNS_7PlantDBINS_5DirDBELh65EE9InnerNodeENSt3tr14hashIlEESt8equal_toIlEE11first_valueEv@Base 1.2.31
 _ZN12kyotocabinet13LinkedHashMapIlPNS_7PlantDBINS_5DirDBELh65EE9InnerNodeENSt3tr14hashIlEESt8equal_toIlEE3endEv@Base 1.2.31
 _ZN12kyotocabinet13LinkedHashMapIlPNS_7PlantDBINS_5DirDBELh65EE9InnerNodeENSt3tr14hashIlEESt8equal_toIlEE3getERKlNSB_8MoveModeE@Base 1.2.31
 _ZN12kyotocabinet13LinkedHashMapIlPNS_7PlantDBINS_5DirDBELh65EE9InnerNodeENSt3tr14hashIlEESt8equal_toIlEE3setERKlRKS5_NSB_8MoveModeE@Base 1.2.31
 _ZN12kyotocabinet13LinkedHashMapIlPNS_7PlantDBINS_5DirDBELh65EE9InnerNodeENSt3tr14hashIlEESt8equal_toIlEE5beginEv@Base 1.2.31
 _ZN12kyotocabinet13LinkedHashMapIlPNS_7PlantDBINS_5DirDBELh65EE9InnerNodeENSt3tr14hashIlEESt8equal_toIlEE5countEv@Base 1.2.31
 _ZN12kyotocabinet13LinkedHashMapIlPNS_7PlantDBINS_5DirDBELh65EE9InnerNodeENSt3tr14hashIlEESt8equal_toIlEE6RecordC1ERKlRKS5_@Base 1.2.31
 _ZN12kyotocabinet13LinkedHashMapIlPNS_7PlantDBINS_5DirDBELh65EE9InnerNodeENSt3tr14hashIlEESt8equal_toIlEE6removeERKl@Base 1.2.31
 _ZN12kyotocabinet13LinkedHashMapIlPNS_7PlantDBINS_5DirDBELh65EE9InnerNodeENSt3tr14hashIlEESt8equal_toIlEE7destroyEv@Base 1.2.31
 _ZN12kyotocabinet13LinkedHashMapIlPNS_7PlantDBINS_5DirDBELh65EE9InnerNodeENSt3tr14hashIlEESt8equal_toIlEE8Iterator5valueEv@Base 1.2.31
 _ZN12kyotocabinet13LinkedHashMapIlPNS_7PlantDBINS_5DirDBELh65EE9InnerNodeENSt3tr14hashIlEESt8equal_toIlEE8IteratorC1EPSB_PNSB_6RecordE@Base 1.2.31
 _ZN12kyotocabinet13LinkedHashMapIlPNS_7PlantDBINS_5DirDBELh65EE9InnerNodeENSt3tr14hashIlEESt8equal_toIlEE8IteratorC1ERKSC_@Base 1.2.31
 _ZN12kyotocabinet13LinkedHashMapIlPNS_7PlantDBINS_5DirDBELh65EE9InnerNodeENSt3tr14hashIlEESt8equal_toIlEE8IteratorppEi@Base 1.2.31
 _ZN12kyotocabinet13LinkedHashMapIlPNS_7PlantDBINS_5DirDBELh65EE9InnerNodeENSt3tr14hashIlEESt8equal_toIlEEC1Em@Base 1.2.31
 _ZN12kyotocabinet13LinkedHashMapIlPNS_7PlantDBINS_5DirDBELh65EE9InnerNodeENSt3tr14hashIlEESt8equal_toIlEED1Ev@Base 1.2.31
 _ZN12kyotocabinet13LinkedHashMapIlPNS_7PlantDBINS_6HashDBELh49EE8LeafNodeENSt3tr14hashIlEESt8equal_toIlEE10initializeEv@Base 1.2.31
 _ZN12kyotocabinet13LinkedHashMapIlPNS_7PlantDBINS_6HashDBELh49EE8LeafNodeENSt3tr14hashIlEESt8equal_toIlEE11first_valueEv@Base 1.2.31
 _ZN12kyotocabinet13LinkedHashMapIlPNS_7PlantDBINS_6HashDBELh49EE8LeafNodeENSt3tr14hashIlEESt8equal_toIlEE3endEv@Base 1.2.31
 _ZN12kyotocabinet13LinkedHashMapIlPNS_7PlantDBINS_6HashDBELh49EE8LeafNodeENSt3tr14hashIlEESt8equal_toIlEE3getERKlNSB_8MoveModeE@Base 1.2.31
 _ZN12kyotocabinet13LinkedHashMapIlPNS_7PlantDBINS_6HashDBELh49EE8LeafNodeENSt3tr14hashIlEESt8equal_toIlEE3setERKlRKS5_NSB_8MoveModeE@Base 1.2.31
 _ZN12kyotocabinet13LinkedHashMapIlPNS_7PlantDBINS_6HashDBELh49EE8LeafNodeENSt3tr14hashIlEESt8equal_toIlEE5beginEv@Base 1.2.31
 _ZN12kyotocabinet13LinkedHashMapIlPNS_7PlantDBINS_6HashDBELh49EE8LeafNodeENSt3tr14hashIlEESt8equal_toIlEE5countEv@Base 1.2.31
 _ZN12kyotocabinet13LinkedHashMapIlPNS_7PlantDBINS_6HashDBELh49EE8LeafNodeENSt3tr14hashIlEESt8equal_toIlEE6RecordC1ERKlRKS5_@Base 1.2.31
 _ZN12kyotocabinet13LinkedHashMapIlPNS_7PlantDBINS_6HashDBELh49EE8LeafNodeENSt3tr14hashIlEESt8equal_toIlEE6removeERKl@Base 1.2.31
 _ZN12kyotocabinet13LinkedHashMapIlPNS_7PlantDBINS_6HashDBELh49EE8LeafNodeENSt3tr14hashIlEESt8equal_toIlEE7destroyEv@Base 1.2.31
 _ZN12kyotocabinet13LinkedHashMapIlPNS_7PlantDBINS_6HashDBELh49EE8LeafNodeENSt3tr14hashIlEESt8equal_toIlEE7migrateERKlPSB_NSB_8MoveModeE@Base 1.2.31
 _ZN12kyotocabinet13LinkedHashMapIlPNS_7PlantDBINS_6HashDBELh49EE8LeafNodeENSt3tr14hashIlEESt8equal_toIlEE8Iterator5valueEv@Base 1.2.31
 _ZN12kyotocabinet13LinkedHashMapIlPNS_7PlantDBINS_6HashDBELh49EE8LeafNodeENSt3tr14hashIlEESt8equal_toIlEE8IteratorC1EPSB_PNSB_6RecordE@Base 1.2.31
 _ZN12kyotocabinet13LinkedHashMapIlPNS_7PlantDBINS_6HashDBELh49EE8LeafNodeENSt3tr14hashIlEESt8equal_toIlEE8IteratorC1ERKSC_@Base 1.2.31
 _ZN12kyotocabinet13LinkedHashMapIlPNS_7PlantDBINS_6HashDBELh49EE8LeafNodeENSt3tr14hashIlEESt8equal_toIlEE8IteratoraSERKSC_@Base 1.2.31
 _ZN12kyotocabinet13LinkedHashMapIlPNS_7PlantDBINS_6HashDBELh49EE8LeafNodeENSt3tr14hashIlEESt8equal_toIlEE8IteratorppEi@Base 1.2.31
 _ZN12kyotocabinet13LinkedHashMapIlPNS_7PlantDBINS_6HashDBELh49EE8LeafNodeENSt3tr14hashIlEESt8equal_toIlEE9first_keyEv@Base 1.2.31
 _ZN12kyotocabinet13LinkedHashMapIlPNS_7PlantDBINS_6HashDBELh49EE8LeafNodeENSt3tr14hashIlEESt8equal_toIlEEC1Em@Base 1.2.31
 _ZN12kyotocabinet13LinkedHashMapIlPNS_7PlantDBINS_6HashDBELh49EE8LeafNodeENSt3tr14hashIlEESt8equal_toIlEED1Ev@Base 1.2.31
 _ZN12kyotocabinet13LinkedHashMapIlPNS_7PlantDBINS_6HashDBELh49EE9InnerNodeENSt3tr14hashIlEESt8equal_toIlEE10initializeEv@Base 1.2.31
 _ZN12kyotocabinet13LinkedHashMapIlPNS_7PlantDBINS_6HashDBELh49EE9InnerNodeENSt3tr14hashIlEESt8equal_toIlEE11first_valueEv@Base 1.2.31
 _ZN12kyotocabinet13LinkedHashMapIlPNS_7PlantDBINS_6HashDBELh49EE9InnerNodeENSt3tr14hashIlEESt8equal_toIlEE3endEv@Base 1.2.31
 _ZN12kyotocabinet13LinkedHashMapIlPNS_7PlantDBINS_6HashDBELh49EE9InnerNodeENSt3tr14hashIlEESt8equal_toIlEE3getERKlNSB_8MoveModeE@Base 1.2.31
 _ZN12kyotocabinet13LinkedHashMapIlPNS_7PlantDBINS_6HashDBELh49EE9InnerNodeENSt3tr14hashIlEESt8equal_toIlEE3setERKlRKS5_NSB_8MoveModeE@Base 1.2.31
 _ZN12kyotocabinet13LinkedHashMapIlPNS_7PlantDBINS_6HashDBELh49EE9InnerNodeENSt3tr14hashIlEESt8equal_toIlEE5beginEv@Base 1.2.31
 _ZN12kyotocabinet13LinkedHashMapIlPNS_7PlantDBINS_6HashDBELh49EE9InnerNodeENSt3tr14hashIlEESt8equal_toIlEE5countEv@Base 1.2.31
 _ZN12kyotocabinet13LinkedHashMapIlPNS_7PlantDBINS_6HashDBELh49EE9InnerNodeENSt3tr14hashIlEESt8equal_toIlEE6RecordC1ERKlRKS5_@Base 1.2.31
 _ZN12kyotocabinet13LinkedHashMapIlPNS_7PlantDBINS_6HashDBELh49EE9InnerNodeENSt3tr14hashIlEESt8equal_toIlEE6removeERKl@Base 1.2.31
 _ZN12kyotocabinet13LinkedHashMapIlPNS_7PlantDBINS_6HashDBELh49EE9InnerNodeENSt3tr14hashIlEESt8equal_toIlEE7destroyEv@Base 1.2.31
 _ZN12kyotocabinet13LinkedHashMapIlPNS_7PlantDBINS_6HashDBELh49EE9InnerNodeENSt3tr14hashIlEESt8equal_toIlEE8Iterator5valueEv@Base 1.2.31
 _ZN12kyotocabinet13LinkedHashMapIlPNS_7PlantDBINS_6HashDBELh49EE9InnerNodeENSt3tr14hashIlEESt8equal_toIlEE8IteratorC1EPSB_PNSB_6RecordE@Base 1.2.31
 _ZN12kyotocabinet13LinkedHashMapIlPNS_7PlantDBINS_6HashDBELh49EE9InnerNodeENSt3tr14hashIlEESt8equal_toIlEE8IteratorC1ERKSC_@Base 1.2.31
 _ZN12kyotocabinet13LinkedHashMapIlPNS_7PlantDBINS_6HashDBELh49EE9InnerNodeENSt3tr14hashIlEESt8equal_toIlEE8IteratorppEi@Base 1.2.31
 _ZN12kyotocabinet13LinkedHashMapIlPNS_7PlantDBINS_6HashDBELh49EE9InnerNodeENSt3tr14hashIlEESt8equal_toIlEEC1Em@Base 1.2.31
 _ZN12kyotocabinet13LinkedHashMapIlPNS_7PlantDBINS_6HashDBELh49EE9InnerNodeENSt3tr14hashIlEESt8equal_toIlEED1Ev@Base 1.2.31
 _ZN12kyotocabinet13LinkedHashMapIlPNS_7PlantDBINS_7CacheDBELh33EE8LeafNodeENSt3tr14hashIlEESt8equal_toIlEE10initializeEv@Base 1.2.31
 _ZN12kyotocabinet13LinkedHashMapIlPNS_7PlantDBINS_7CacheDBELh33EE8LeafNodeENSt3tr14hashIlEESt8equal_toIlEE11first_valueEv@Base 1.2.31
 _ZN12kyotocabinet13LinkedHashMapIlPNS_7PlantDBINS_7CacheDBELh33EE8LeafNodeENSt3tr14hashIlEESt8equal_toIlEE3endEv@Base 1.2.31
 _ZN12kyotocabinet13LinkedHashMapIlPNS_7PlantDBINS_7CacheDBELh33EE8LeafNodeENSt3tr14hashIlEESt8equal_toIlEE3getERKlNSB_8MoveModeE@Base 1.2.31
 _ZN12kyotocabinet13LinkedHashMapIlPNS_7PlantDBINS_7CacheDBELh33EE8LeafNodeENSt3tr14hashIlEESt8equal_toIlEE3setERKlRKS5_NSB_8MoveModeE@Base 1.2.31
 _ZN12kyotocabinet13LinkedHashMapIlPNS_7PlantDBINS_7CacheDBELh33EE8LeafNodeENSt3tr14hashIlEESt8equal_toIlEE5beginEv@Base 1.2.31
 _ZN12kyotocabinet13LinkedHashMapIlPNS_7PlantDBINS_7CacheDBELh33EE8LeafNodeENSt3tr14hashIlEESt8equal_toIlEE5countEv@Base 1.2.31
 _ZN12kyotocabinet13LinkedHashMapIlPNS_7PlantDBINS_7CacheDBELh33EE8LeafNodeENSt3tr14hashIlEESt8equal_toIlEE6RecordC1ERKlRKS5_@Base 1.2.31
 _ZN12kyotocabinet13LinkedHashMapIlPNS_7PlantDBINS_7CacheDBELh33EE8LeafNodeENSt3tr14hashIlEESt8equal_toIlEE6removeERKl@Base 1.2.31
 _ZN12kyotocabinet13LinkedHashMapIlPNS_7PlantDBINS_7CacheDBELh33EE8LeafNodeENSt3tr14hashIlEESt8equal_toIlEE7destroyEv@Base 1.2.31
 _ZN12kyotocabinet13LinkedHashMapIlPNS_7PlantDBINS_7CacheDBELh33EE8LeafNodeENSt3tr14hashIlEESt8equal_toIlEE7migrateERKlPSB_NSB_8MoveModeE@Base 1.2.31
 _ZN12kyotocabinet13LinkedHashMapIlPNS_7PlantDBINS_7CacheDBELh33EE8LeafNodeENSt3tr14hashIlEESt8equal_toIlEE8Iterator5valueEv@Base 1.2.31
 _ZN12kyotocabinet13LinkedHashMapIlPNS_7PlantDBINS_7CacheDBELh33EE8LeafNodeENSt3tr14hashIlEESt8equal_toIlEE8IteratorC1EPSB_PNSB_6RecordE@Base 1.2.31
 _ZN12kyotocabinet13LinkedHashMapIlPNS_7PlantDBINS_7CacheDBELh33EE8LeafNodeENSt3tr14hashIlEESt8equal_toIlEE8IteratorC1ERKSC_@Base 1.2.31
 _ZN12kyotocabinet13LinkedHashMapIlPNS_7PlantDBINS_7CacheDBELh33EE8LeafNodeENSt3tr14hashIlEESt8equal_toIlEE8IteratoraSERKSC_@Base 1.2.31
 _ZN12kyotocabinet13LinkedHashMapIlPNS_7PlantDBINS_7CacheDBELh33EE8LeafNodeENSt3tr14hashIlEESt8equal_toIlEE8IteratorppEi@Base 1.2.31
 _ZN12kyotocabinet13LinkedHashMapIlPNS_7PlantDBINS_7CacheDBELh33EE8LeafNodeENSt3tr14hashIlEESt8equal_toIlEE9first_keyEv@Base 1.2.31
 _ZN12kyotocabinet13LinkedHashMapIlPNS_7PlantDBINS_7CacheDBELh33EE8LeafNodeENSt3tr14hashIlEESt8equal_toIlEEC1Em@Base 1.2.31
 _ZN12kyotocabinet13LinkedHashMapIlPNS_7PlantDBINS_7CacheDBELh33EE8LeafNodeENSt3tr14hashIlEESt8equal_toIlEED1Ev@Base 1.2.31
 _ZN12kyotocabinet13LinkedHashMapIlPNS_7PlantDBINS_7CacheDBELh33EE9InnerNodeENSt3tr14hashIlEESt8equal_toIlEE10initializeEv@Base 1.2.31
 _ZN12kyotocabinet13LinkedHashMapIlPNS_7PlantDBINS_7CacheDBELh33EE9InnerNodeENSt3tr14hashIlEESt8equal_toIlEE11first_valueEv@Base 1.2.31
 _ZN12kyotocabinet13LinkedHashMapIlPNS_7PlantDBINS_7CacheDBELh33EE9InnerNodeENSt3tr14hashIlEESt8equal_toIlEE3endEv@Base 1.2.31
 _ZN12kyotocabinet13LinkedHashMapIlPNS_7PlantDBINS_7CacheDBELh33EE9InnerNodeENSt3tr14hashIlEESt8equal_toIlEE3getERKlNSB_8MoveModeE@Base 1.2.31
 _ZN12kyotocabinet13LinkedHashMapIlPNS_7PlantDBINS_7CacheDBELh33EE9InnerNodeENSt3tr14hashIlEESt8equal_toIlEE3setERKlRKS5_NSB_8MoveModeE@Base 1.2.31
 _ZN12kyotocabinet13LinkedHashMapIlPNS_7PlantDBINS_7CacheDBELh33EE9InnerNodeENSt3tr14hashIlEESt8equal_toIlEE5beginEv@Base 1.2.31
 _ZN12kyotocabinet13LinkedHashMapIlPNS_7PlantDBINS_7CacheDBELh33EE9InnerNodeENSt3tr14hashIlEESt8equal_toIlEE5countEv@Base 1.2.31
 _ZN12kyotocabinet13LinkedHashMapIlPNS_7PlantDBINS_7CacheDBELh33EE9InnerNodeENSt3tr14hashIlEESt8equal_toIlEE6RecordC1ERKlRKS5_@Base 1.2.31
 _ZN12kyotocabinet13LinkedHashMapIlPNS_7PlantDBINS_7CacheDBELh33EE9InnerNodeENSt3tr14hashIlEESt8equal_toIlEE6removeERKl@Base 1.2.31
 _ZN12kyotocabinet13LinkedHashMapIlPNS_7PlantDBINS_7CacheDBELh33EE9InnerNodeENSt3tr14hashIlEESt8equal_toIlEE7destroyEv@Base 1.2.31
 _ZN12kyotocabinet13LinkedHashMapIlPNS_7PlantDBINS_7CacheDBELh33EE9InnerNodeENSt3tr14hashIlEESt8equal_toIlEE8Iterator5valueEv@Base 1.2.31
 _ZN12kyotocabinet13LinkedHashMapIlPNS_7PlantDBINS_7CacheDBELh33EE9InnerNodeENSt3tr14hashIlEESt8equal_toIlEE8IteratorC1EPSB_PNSB_6RecordE@Base 1.2.31
 _ZN12kyotocabinet13LinkedHashMapIlPNS_7PlantDBINS_7CacheDBELh33EE9InnerNodeENSt3tr14hashIlEESt8equal_toIlEE8IteratorC1ERKSC_@Base 1.2.31
 _ZN12kyotocabinet13LinkedHashMapIlPNS_7PlantDBINS_7CacheDBELh33EE9InnerNodeENSt3tr14hashIlEESt8equal_toIlEE8IteratorppEi@Base 1.2.31
 _ZN12kyotocabinet13LinkedHashMapIlPNS_7PlantDBINS_7CacheDBELh33EE9InnerNodeENSt3tr14hashIlEESt8equal_toIlEEC1Em@Base 1.2.31
 _ZN12kyotocabinet13LinkedHashMapIlPNS_7PlantDBINS_7CacheDBELh33EE9InnerNodeENSt3tr14hashIlEESt8equal_toIlEED1Ev@Base 1.2.31
 _ZN12kyotocabinet13SlottedRWLock10unlock_allEv@Base 1.2.36
 _ZN12kyotocabinet13SlottedRWLock11lock_readerEm@Base 1.2.36
 _ZN12kyotocabinet13SlottedRWLock11lock_writerEm@Base 1.2.36
 _ZN12kyotocabinet13SlottedRWLock15lock_reader_allEv@Base 1.2.36
 _ZN12kyotocabinet13SlottedRWLock15lock_writer_allEv@Base 1.2.36
 _ZN12kyotocabinet13SlottedRWLock6unlockEm@Base 1.2.36
 _ZN12kyotocabinet13SlottedRWLockC1Em@Base 1.2.36
 _ZN12kyotocabinet13SlottedRWLockC2Em@Base 1.2.36
 _ZN12kyotocabinet13SlottedRWLockD1Ev@Base 1.2.36
 _ZN12kyotocabinet13SlottedRWLockD2Ev@Base 1.2.36
 _ZN12kyotocabinet13lzo_init_funcEv@Base 1.2.31
 _ZN12kyotocabinet14LZMACompressorILNS_4LZMA4ModeE0EE10decompressEPKvmPm@Base 1.2.31
 _ZN12kyotocabinet14LZMACompressorILNS_4LZMA4ModeE0EE8compressEPKvmPm@Base 1.2.31
 _ZN12kyotocabinet14LZMACompressorILNS_4LZMA4ModeE0EEC1Ev@Base 1.2.31
 _ZN12kyotocabinet14LZMACompressorILNS_4LZMA4ModeE0EED0Ev@Base 1.2.31
 _ZN12kyotocabinet14LZMACompressorILNS_4LZMA4ModeE0EED1Ev@Base 1.2.31
 _ZN12kyotocabinet14LZMACompressorILNS_4LZMA4ModeE1EE10decompressEPKvmPm@Base 1.2.31
 _ZN12kyotocabinet14LZMACompressorILNS_4LZMA4ModeE1EE8compressEPKvmPm@Base 1.2.31
 _ZN12kyotocabinet14LZMACompressorILNS_4LZMA4ModeE1EEC1Ev@Base 1.2.31
 _ZN12kyotocabinet14LZMACompressorILNS_4LZMA4ModeE1EED0Ev@Base 1.2.31
 _ZN12kyotocabinet14LZMACompressorILNS_4LZMA4ModeE1EED1Ev@Base 1.2.31
 _ZN12kyotocabinet14LZMACompressorILNS_4LZMA4ModeE2EE10decompressEPKvmPm@Base 1.2.31
 _ZN12kyotocabinet14LZMACompressorILNS_4LZMA4ModeE2EE8compressEPKvmPm@Base 1.2.31
 _ZN12kyotocabinet14LZMACompressorILNS_4LZMA4ModeE2EEC1Ev@Base 1.2.31
 _ZN12kyotocabinet14LZMACompressorILNS_4LZMA4ModeE2EED0Ev@Base 1.2.31
 _ZN12kyotocabinet14LZMACompressorILNS_4LZMA4ModeE2EED1Ev@Base 1.2.31
 _ZN12kyotocabinet14ScopedSpinLockC1EPNS_8SpinLockE@Base 1.2.31
 _ZN12kyotocabinet14ScopedSpinLockD1Ev@Base 1.2.31
 _ZN12kyotocabinet14ZLIBCompressorILNS_4ZLIB4ModeE0EE10decompressEPKvmPm@Base 1.2.31
 _ZN12kyotocabinet14ZLIBCompressorILNS_4ZLIB4ModeE0EE8compressEPKvmPm@Base 1.2.31
 _ZN12kyotocabinet14ZLIBCompressorILNS_4ZLIB4ModeE0EEC1Ev@Base 1.2.31
 _ZN12kyotocabinet14ZLIBCompressorILNS_4ZLIB4ModeE0EED0Ev@Base 1.2.31
 _ZN12kyotocabinet14ZLIBCompressorILNS_4ZLIB4ModeE0EED1Ev@Base 1.2.31
 _ZN12kyotocabinet14ZLIBCompressorILNS_4ZLIB4ModeE1EE10decompressEPKvmPm@Base 1.2.31
 _ZN12kyotocabinet14ZLIBCompressorILNS_4ZLIB4ModeE1EE8compressEPKvmPm@Base 1.2.31
 _ZN12kyotocabinet14ZLIBCompressorILNS_4ZLIB4ModeE1EEC1Ev@Base 1.2.31
 _ZN12kyotocabinet14ZLIBCompressorILNS_4ZLIB4ModeE1EED0Ev@Base 1.2.31
 _ZN12kyotocabinet14ZLIBCompressorILNS_4ZLIB4ModeE1EED1Ev@Base 1.2.31
 _ZN12kyotocabinet14ZLIBCompressorILNS_4ZLIB4ModeE2EE10decompressEPKvmPm@Base 1.2.31
 _ZN12kyotocabinet14ZLIBCompressorILNS_4ZLIB4ModeE2EE8compressEPKvmPm@Base 1.2.31
 _ZN12kyotocabinet14ZLIBCompressorILNS_4ZLIB4ModeE2EEC1Ev@Base 1.2.31
 _ZN12kyotocabinet14ZLIBCompressorILNS_4ZLIB4ModeE2EED0Ev@Base 1.2.31
 _ZN12kyotocabinet14ZLIBCompressorILNS_4ZLIB4ModeE2EED1Ev@Base 1.2.31
 _ZN12kyotocabinet15DECIMALDESCCOMPE@Base 1.2.40
 _ZN12kyotocabinet15LEXICALDESCCOMPE@Base 1.2.40
 _ZN12kyotocabinet15SlottedSpinLock10unlock_allEv@Base 1.2.36
 _ZN12kyotocabinet15SlottedSpinLock4lockEm@Base 1.2.36
 _ZN12kyotocabinet15SlottedSpinLock6unlockEm@Base 1.2.36
 _ZN12kyotocabinet15SlottedSpinLock8lock_allEv@Base 1.2.36
 _ZN12kyotocabinet15SlottedSpinLockC1Em@Base 1.2.36
 _ZN12kyotocabinet15SlottedSpinLockC2Em@Base 1.2.36
 _ZN12kyotocabinet15SlottedSpinLockD1Ev@Base 1.2.36
 _ZN12kyotocabinet15SlottedSpinLockD2Ev@Base 1.2.36
 _ZN12kyotocabinet15decimaldescfuncE@Base 1.2.40
 _ZN12kyotocabinet15lexicaldescfuncE@Base 1.2.40
 _ZN12kyotocabinet16ScopedSpinRWLockC1EPNS_10SpinRWLockEb@Base 1.2.31
 _ZN12kyotocabinet16ScopedSpinRWLockD1Ev@Base 1.2.31
 _ZN12kyotocabinet17ArcfourCompressor10decompressEPKvmPm@Base 1.2.31
 _ZN12kyotocabinet17ArcfourCompressor11begin_cycleEm@Base 1.2.31
 _ZN12kyotocabinet17ArcfourCompressor14set_compressorEPNS_10CompressorE@Base 1.2.31
 _ZN12kyotocabinet17ArcfourCompressor7set_keyEPKvm@Base 1.2.31
 _ZN12kyotocabinet17ArcfourCompressor8compressEPKvmPm@Base 1.2.31
 _ZN12kyotocabinet17ArcfourCompressorC1Ev@Base 1.2.31
 _ZN12kyotocabinet17ArcfourCompressorD0Ev@Base 1.2.31
 _ZN12kyotocabinet17ArcfourCompressorD1Ev@Base 1.2.31
 _ZN12kyotocabinet17DecimalComparator7compareEPKcmS2_m@Base 1.2.31
 _ZN12kyotocabinet17DecimalComparatorC1Ev@Base 1.2.31
 _ZN12kyotocabinet17DecimalComparatorD0Ev@Base 1.2.31
 _ZN12kyotocabinet17DecimalComparatorD1Ev@Base 1.2.31
 _ZN12kyotocabinet17LexicalComparator7compareEPKcmS2_m@Base 1.2.31
 _ZN12kyotocabinet17LexicalComparatorC1Ev@Base 1.2.31
 _ZN12kyotocabinet17LexicalComparatorD0Ev@Base 1.2.31
 _ZN12kyotocabinet17LexicalComparatorD1Ev@Base 1.2.31
 _ZN12kyotocabinet17SlottedSpinRWLock10unlock_allEv@Base 1.2.36
 _ZN12kyotocabinet17SlottedSpinRWLock11lock_readerEm@Base 1.2.36
 _ZN12kyotocabinet17SlottedSpinRWLock11lock_writerEm@Base 1.2.36
 _ZN12kyotocabinet17SlottedSpinRWLock15lock_reader_allEv@Base 1.2.36
 _ZN12kyotocabinet17SlottedSpinRWLock15lock_writer_allEv@Base 1.2.36
 _ZN12kyotocabinet17SlottedSpinRWLock6unlockEm@Base 1.2.36
 _ZN12kyotocabinet17SlottedSpinRWLockC1Em@Base 1.2.36
 _ZN12kyotocabinet17SlottedSpinRWLockC2Em@Base 1.2.36
 _ZN12kyotocabinet17SlottedSpinRWLockD1Ev@Base 1.2.36
 _ZN12kyotocabinet17SlottedSpinRWLockD2Ev@Base 1.2.36
 _ZN12kyotocabinet27DecimalDescendingComparator7compareEPKcmS2_m@Base 1.2.40
 _ZN12kyotocabinet27DecimalDescendingComparatorC1Ev@Base 1.2.40
 _ZN12kyotocabinet27DecimalDescendingComparatorD0Ev@Base 1.2.40
 _ZN12kyotocabinet27DecimalDescendingComparatorD1Ev@Base 1.2.40
 _ZN12kyotocabinet27LexicalDescendingComparator7compareEPKcmS2_m@Base 1.2.40
 _ZN12kyotocabinet27LexicalDescendingComparatorC1Ev@Base 1.2.40
 _ZN12kyotocabinet27LexicalDescendingComparatorD0Ev@Base 1.2.40
 _ZN12kyotocabinet27LexicalDescendingComparatorD1Ev@Base 1.2.40
 _ZN12kyotocabinet2DB6CursorC2Ev@Base 1.2.31
 _ZN12kyotocabinet2DB6CursorD0Ev@Base 1.2.31
 _ZN12kyotocabinet2DB6CursorD1Ev@Base 1.2.31
 _ZN12kyotocabinet2DB6CursorD2Ev@Base 1.2.31
 _ZN12kyotocabinet2DB7Visitor10visit_fullEPKcmS3_mPm@Base 1.2.31
 _ZN12kyotocabinet2DB7Visitor11visit_emptyEPKcmPm@Base 1.2.31
 _ZN12kyotocabinet2DB7Visitor3NOPE@Base 1.2.31
 _ZN12kyotocabinet2DB7Visitor6REMOVEE@Base 1.2.31
 _ZN12kyotocabinet2DB7VisitorC1Ev@Base 1.2.31
 _ZN12kyotocabinet2DB7VisitorC2Ev@Base 1.2.31
 _ZN12kyotocabinet2DB7VisitorD0Ev@Base 1.2.31
 _ZN12kyotocabinet2DB7VisitorD1Ev@Base 1.2.31
 _ZN12kyotocabinet2DB7VisitorD2Ev@Base 1.2.31
 _ZN12kyotocabinet2DBC2Ev@Base 1.2.31
 _ZN12kyotocabinet2DBD0Ev@Base 1.2.31
 _ZN12kyotocabinet2DBD1Ev@Base 1.2.31
 _ZN12kyotocabinet2DBD2Ev@Base 1.2.31
 _ZN12kyotocabinet3LZO10decompressEPKvmPmNS0_4ModeE@Base 1.2.31
 _ZN12kyotocabinet3LZO13calculate_crcEPKvmj@Base 1.2.31
 _ZN12kyotocabinet3LZO8compressEPKvmPmNS0_4ModeE@Base 1.2.31
 _ZN12kyotocabinet3TSDINS_7BasicDB5ErrorEE12delete_valueEPv@Base 1.2.31
 _ZN12kyotocabinet3TSDINS_7BasicDB5ErrorEEC1Ev@Base 1.2.31
 _ZN12kyotocabinet3TSDINS_7BasicDB5ErrorEED1Ev@Base 1.2.31
 _ZN12kyotocabinet3TSDINS_7BasicDB5ErrorEEptEv@Base 1.2.31
 _ZN12kyotocabinet3infEv@Base 1.2.31
 _ZN12kyotocabinet3nanEv@Base 1.2.31
 _ZN12kyotocabinet4File10write_fastElPKvm@Base 1.2.31
 _ZN12kyotocabinet4File10write_fileERKSsPKcl@Base 1.2.31
 _ZN12kyotocabinet4File11synchronizeEb@Base 1.2.31
 _ZN12kyotocabinet4File13absolute_pathERKSs@Base 1.2.31
 _ZN12kyotocabinet4File14make_directoryERKSs@Base 1.2.31
 _ZN12kyotocabinet4File14read_directoryERKSsPSt6vectorISsSaISsEE@Base 1.2.31
 _ZN12kyotocabinet4File15end_transactionEb@Base 1.2.31
 _ZN12kyotocabinet4File16remove_directoryERKSs@Base 1.2.31
 _ZN12kyotocabinet4File17begin_transactionEbl@Base 1.2.31
 _ZN12kyotocabinet4File17synchronize_wholeEv@Base 1.2.31
 _ZN12kyotocabinet4File17write_transactionElm@Base 1.2.31
 _ZN12kyotocabinet4File18remove_recursivelyERKSs@Base 1.2.31
 _ZN12kyotocabinet4File21get_current_directoryEv@Base 1.2.31
 _ZN12kyotocabinet4File21set_current_directoryERKSs@Base 1.2.31
 _ZN12kyotocabinet4File4openERKSsjl@Base 1.2.31
 _ZN12kyotocabinet4File4readElPvm@Base 1.2.31
 _ZN12kyotocabinet4File5closeEv@Base 1.2.31
 _ZN12kyotocabinet4File5writeElPKvm@Base 1.2.31
 _ZN12kyotocabinet4File6EXTCHRE@Base 1.2.31
 _ZN12kyotocabinet4File6EXTSTRE@Base 1.2.31
 _ZN12kyotocabinet4File6appendEPKvm@Base 1.2.31
 _ZN12kyotocabinet4File6removeERKSs@Base 1.2.31
 _ZN12kyotocabinet4File6renameERKSsS2_@Base 1.2.31
 _ZN12kyotocabinet4File6statusERKSsPNS0_6StatusE@Base 1.2.31
 _ZN12kyotocabinet4File7CDIRSTRE@Base 1.2.31
 _ZN12kyotocabinet4File7PATHCHRE@Base 1.2.31
 _ZN12kyotocabinet4File7PATHSTRE@Base 1.2.31
 _ZN12kyotocabinet4File7PDIRSTRE@Base 1.2.31
 _ZN12kyotocabinet4File7refreshEv@Base 1.2.31
 _ZN12kyotocabinet4File8truncateEl@Base 1.2.31
 _ZN12kyotocabinet4File9read_fastElPvm@Base 1.2.31
 _ZN12kyotocabinet4File9read_fileERKSsPll@Base 1.2.31
 _ZN12kyotocabinet4FileC1Ev@Base 1.2.31
 _ZN12kyotocabinet4FileC2Ev@Base 1.2.31
 _ZN12kyotocabinet4FileD1Ev@Base 1.2.31
 _ZN12kyotocabinet4FileD2Ev@Base 1.2.31
 _ZN12kyotocabinet4LZMA10decompressEPKvmPmNS0_4ModeE@Base 1.2.31
 _ZN12kyotocabinet4LZMA13calculate_crcEPKvmj@Base 1.2.31
 _ZN12kyotocabinet4LZMA8compressEPKvmPmNS0_4ModeE@Base 1.2.31
 _ZN12kyotocabinet4ZLIB10decompressEPKvmPmNS0_4ModeE@Base 1.2.31
 _ZN12kyotocabinet4ZLIB13calculate_crcEPKvmj@Base 1.2.31
 _ZN12kyotocabinet4ZLIB8compressEPKvmPmNS0_4ModeE@Base 1.2.31
 _ZN12kyotocabinet4atofEPKc@Base 1.2.31
 _ZN12kyotocabinet4atoiEPKc@Base 1.2.31
 _ZN12kyotocabinet4timeEv@Base 1.2.31
 _ZN12kyotocabinet5DirDB10calc_magicERKSs@Base 1.2.31
 _ZN12kyotocabinet5DirDB10dump_magicEv@Base 1.2.31
 _ZN12kyotocabinet5DirDB10load_magicEv@Base 1.2.31
 _ZN12kyotocabinet5DirDB11accept_bulkERKSt6vectorISsSaISsEEPNS_2DB7VisitorEb@Base 1.2.31
 _ZN12kyotocabinet5DirDB11accept_implEPKcmPNS_2DB7VisitorES2_@Base 1.2.31
 _ZN12kyotocabinet5DirDB11dump_opaqueEv@Base 1.2.31
 _ZN12kyotocabinet5DirDB11load_opaqueEv@Base 1.2.31
 _ZN12kyotocabinet5DirDB11read_recordERKSsPNS0_6RecordE@Base 1.2.31
 _ZN12kyotocabinet5DirDB11reorganizedEv@Base 1.2.31
 _ZN12kyotocabinet5DirDB11synchronizeEbPNS_7BasicDB13FileProcessorEPNS1_15ProgressCheckerE@Base 1.2.31
 _ZN12kyotocabinet5DirDB11tune_loggerEPNS_7BasicDB6LoggerEj@Base 1.2.31
 _ZN12kyotocabinet5DirDB12format_magicEll@Base 1.2.31
 _ZN12kyotocabinet5DirDB12iterate_implEPNS_2DB7VisitorEPNS_7BasicDB15ProgressCheckerE@Base 1.2.31
 _ZN12kyotocabinet5DirDB12remove_filesERKSs@Base 1.2.31
 _ZN12kyotocabinet5DirDB12trigger_metaENS_7BasicDB11MetaTrigger4KindEPKc@Base 1.2.31
 _ZN12kyotocabinet5DirDB12tune_bucketsEl@Base 1.2.31
 _ZN12kyotocabinet5DirDB12tune_optionsEa@Base 1.2.31
 _ZN12kyotocabinet5DirDB12write_recordERKSsPKcS4_mS4_mPm@Base 1.2.31
 _ZN12kyotocabinet5DirDB13calc_checksumEv@Base 1.2.31
 _ZN12kyotocabinet5DirDB13report_binaryEPKciS2_NS_7BasicDB6Logger4KindES2_S2_m@Base 1.2.31
 _ZN12kyotocabinet5DirDB13report_valistEPKciS2_NS_7BasicDB6Logger4KindES2_P13__va_list_tag@Base 1.2.31
 _ZN12kyotocabinet5DirDB14escape_cursorsERKSsPKc@Base 1.2.31
 _ZN12kyotocabinet5DirDB14tune_alignmentEa@Base 1.2.31
 _ZN12kyotocabinet5DirDB15disable_cursorsEv@Base 1.2.31
 _ZN12kyotocabinet5DirDB15end_transactionEb@Base 1.2.31
 _ZN12kyotocabinet5DirDB15tune_compressorEPNS_10CompressorE@Base 1.2.31
 _ZN12kyotocabinet5DirDB16synchronize_implEbPNS_7BasicDB13FileProcessorEPNS1_15ProgressCheckerE@Base 1.2.31
 _ZN12kyotocabinet5DirDB17abort_transactionEv@Base 1.2.31
 _ZN12kyotocabinet5DirDB17accept_visit_fullEPKcmS2_mmPNS_2DB7VisitorERKSsS2_@Base 1.2.31
 _ZN12kyotocabinet5DirDB17begin_transactionEb@Base 1.2.31
 _ZN12kyotocabinet5DirDB17tune_meta_triggerEPNS_7BasicDB11MetaTriggerE@Base 1.2.31
 _ZN12kyotocabinet5DirDB18accept_visit_emptyEPKcmPNS_2DB7VisitorERKSsS2_@Base 1.2.31
 _ZN12kyotocabinet5DirDB18commit_transactionEv@Base 1.2.31
 _ZN12kyotocabinet5DirDB21begin_transaction_tryEb@Base 1.2.31
 _ZN12kyotocabinet5DirDB22begin_transaction_implEv@Base 1.2.31
 _ZN12kyotocabinet5DirDB4openERKSsj@Base 1.2.31
 _ZN12kyotocabinet5DirDB4pathEv@Base 1.2.31
 _ZN12kyotocabinet5DirDB4sizeEv@Base 1.2.31
 _ZN12kyotocabinet5DirDB4typeEv@Base 1.2.31
 _ZN12kyotocabinet5DirDB5clearEv@Base 1.2.31
 _ZN12kyotocabinet5DirDB5closeEv@Base 1.2.31
 _ZN12kyotocabinet5DirDB5countEv@Base 1.2.31
 _ZN12kyotocabinet5DirDB6Cursor2dbEv@Base 1.2.31
 _ZN12kyotocabinet5DirDB6Cursor4jumpEPKcm@Base 1.2.31
 _ZN12kyotocabinet5DirDB6Cursor4jumpERKSs@Base 1.2.31
 _ZN12kyotocabinet5DirDB6Cursor4jumpEv@Base 1.2.31
 _ZN12kyotocabinet5DirDB6Cursor4stepEv@Base 1.2.31
 _ZN12kyotocabinet5DirDB6Cursor6acceptEPNS_2DB7VisitorEbb@Base 1.2.31
 _ZN12kyotocabinet5DirDB6Cursor7disableEv@Base 1.2.31
 _ZN12kyotocabinet5DirDB6Cursor9jump_backEPKcm@Base 1.2.31
 _ZN12kyotocabinet5DirDB6Cursor9jump_backERKSs@Base 1.2.31
 _ZN12kyotocabinet5DirDB6Cursor9jump_backEv@Base 1.2.31
 _ZN12kyotocabinet5DirDB6Cursor9step_backEv@Base 1.2.31
 _ZN12kyotocabinet5DirDB6CursorC1EPS0_@Base 1.2.31
 _ZN12kyotocabinet5DirDB6CursorD0Ev@Base 1.2.31
 _ZN12kyotocabinet5DirDB6CursorD1Ev@Base 1.2.31
 _ZN12kyotocabinet5DirDB6acceptEPKcmPNS_2DB7VisitorEb@Base 1.2.31
 _ZN12kyotocabinet5DirDB6cursorEv@Base 1.2.31
 _ZN12kyotocabinet5DirDB6reportEPKciS2_NS_7BasicDB6Logger4KindES2_z@Base 1.2.31
 _ZN12kyotocabinet5DirDB6statusEPSt3mapISsSsSt4lessISsESaISt4pairIKSsSsEEE@Base 1.2.31
 _ZN12kyotocabinet5DirDB7iterateEPNS_2DB7VisitorEbPNS_7BasicDB15ProgressCheckerE@Base 1.2.31
 _ZN12kyotocabinet5DirDB8tune_fbpEa@Base 1.2.31
 _ZN12kyotocabinet5DirDB9dump_metaERKSs@Base 1.2.31
 _ZN12kyotocabinet5DirDB9load_metaERKSs@Base 1.2.31
 _ZN12kyotocabinet5DirDB9recoveredEv@Base 1.2.31
 _ZN12kyotocabinet5DirDB9set_errorEPKciS2_NS_7BasicDB5Error4CodeES2_@Base 1.2.31
 _ZN12kyotocabinet5DirDB9size_implEv@Base 1.2.31
 _ZN12kyotocabinet5DirDB9tune_typeEa@Base 1.2.31
 _ZN12kyotocabinet5DirDBC1Ev@Base 1.2.31
 _ZN12kyotocabinet5DirDBD0Ev@Base 1.2.31
 _ZN12kyotocabinet5DirDBD1Ev@Base 1.2.31
 _ZN12kyotocabinet5Mutex4lockEv@Base 1.2.31
 _ZN12kyotocabinet5Mutex6unlockEv@Base 1.2.31
 _ZN12kyotocabinet5Mutex8lock_tryEd@Base 1.2.31
 _ZN12kyotocabinet5Mutex8lock_tryEv@Base 1.2.31
 _ZN12kyotocabinet5MutexC1ENS0_4TypeE@Base 1.2.31
 _ZN12kyotocabinet5MutexC1Ev@Base 1.2.31
 _ZN12kyotocabinet5MutexC2ENS0_4TypeE@Base 1.2.31
 _ZN12kyotocabinet5MutexC2Ev@Base 1.2.31
 _ZN12kyotocabinet5MutexD1Ev@Base 1.2.31
 _ZN12kyotocabinet5MutexD2Ev@Base 1.2.31
 _ZN12kyotocabinet5Regex5matchERKSs@Base 1.2.31
 _ZN12kyotocabinet5Regex7compileERKSsj@Base 1.2.31
 _ZN12kyotocabinet5Regex7replaceERKSsS2_@Base 1.2.31
 _ZN12kyotocabinet5RegexC1Ev@Base 1.2.31
 _ZN12kyotocabinet5RegexC2Ev@Base 1.2.31
 _ZN12kyotocabinet5RegexD1Ev@Base 1.2.31
 _ZN12kyotocabinet5RegexD2Ev@Base 1.2.31
 _ZN12kyotocabinet5atoixEPKc@Base 1.2.31
 _ZN12kyotocabinet5xfreeEPv@Base 1.2.31
 _ZN12kyotocabinet6BIGENDE@Base 1.2.31
 _ZN12kyotocabinet6FMTVERE@Base 1.2.31
 _ZN12kyotocabinet6HashDB10get_bucketEl@Base 1.2.31
 _ZN12kyotocabinet6HashDB10set_bucketEll@Base 1.2.31
 _ZN12kyotocabinet6HashDB11accept_bulkERKSt6vectorISsSaISsEEPNS_2DB7VisitorEb@Base 1.2.31
 _ZN12kyotocabinet6HashDB11accept_implEPKcmPNS_2DB7VisitorEljb@Base 1.2.31
 _ZN12kyotocabinet6HashDB11defrag_implEl@Base 1.2.31
 _ZN12kyotocabinet6HashDB11hash_recordEPKcm@Base 1.2.31
 _ZN12kyotocabinet6HashDB11read_recordEPNS0_6RecordEPc@Base 1.2.31
 _ZN12kyotocabinet6HashDB11reorganizedEv@Base 1.2.31
 _ZN12kyotocabinet6HashDB11synchronizeEbPNS_7BasicDB13FileProcessorEPNS1_15ProgressCheckerE@Base 1.2.31
 _ZN12kyotocabinet6HashDB11tune_defragEl@Base 1.2.31
 _ZN12kyotocabinet6HashDB11tune_loggerEPNS_7BasicDB6LoggerEj@Base 1.2.31
 _ZN12kyotocabinet6HashDB12compare_keysEPKcmS2_m@Base 1.2.31
 _ZN12kyotocabinet6HashDB12copy_recordsEPS0_@Base 1.2.31
 _ZN12kyotocabinet6HashDB12iterate_implEPNS_2DB7VisitorEPNS_7BasicDB15ProgressCheckerE@Base 1.2.31
 _ZN12kyotocabinet6HashDB12shift_recordEPNS0_6RecordEl@Base 1.2.31
 _ZN12kyotocabinet6HashDB12trigger_metaENS_7BasicDB11MetaTrigger4KindEPKc@Base 1.2.31
 _ZN12kyotocabinet6HashDB12trim_cursorsEv@Base 1.2.31
 _ZN12kyotocabinet6HashDB12tune_bucketsEl@Base 1.2.31
 _ZN12kyotocabinet6HashDB12tune_optionsEa@Base 1.2.31
 _ZN12kyotocabinet6HashDB12write_recordEPNS0_6RecordEb@Base 1.2.31
 _ZN12kyotocabinet6HashDB13adjust_recordEPNS0_6RecordE@Base 1.2.31
 _ZN12kyotocabinet6HashDB13calc_checksumEv@Base 1.2.31
 _ZN12kyotocabinet6HashDB13report_binaryEPKciS2_NS_7BasicDB6Logger4KindES2_S2_m@Base 1.2.31
 _ZN12kyotocabinet6HashDB13report_valistEPKciS2_NS_7BasicDB6Logger4KindES2_P13__va_list_tag@Base 1.2.31
 _ZN12kyotocabinet6HashDB14dump_auto_metaEv@Base 1.2.31
 _ZN12kyotocabinet6HashDB14escape_cursorsEll@Base 1.2.31
 _ZN12kyotocabinet6HashDB14tune_alignmentEa@Base 1.2.31
 _ZN12kyotocabinet6HashDB15disable_cursorsEv@Base 1.2.31
 _ZN12kyotocabinet6HashDB15end_transactionEb@Base 1.2.31
 _ZN12kyotocabinet6HashDB15reorganize_fileERKSs@Base 1.2.31
 _ZN12kyotocabinet6HashDB15tune_compressorEPNS_10CompressorE@Base 1.2.31
 _ZN12kyotocabinet6HashDB16calc_record_sizeEmm@Base 1.2.31
 _ZN12kyotocabinet6HashDB16dump_free_blocksEv@Base 1.2.31
 _ZN12kyotocabinet6HashDB16fetch_free_blockEmPNS0_9FreeBlockE@Base 1.2.31
 _ZN12kyotocabinet6HashDB16load_free_blocksEv@Base 1.2.31
 _ZN12kyotocabinet6HashDB16read_record_bodyEPNS0_6RecordE@Base 1.2.31
 _ZN12kyotocabinet6HashDB16synchronize_implEbPNS_7BasicDB13FileProcessorEPNS1_15ProgressCheckerE@Base 1.2.31
 _ZN12kyotocabinet6HashDB16synchronize_metaEv@Base 1.2.31
 _ZN12kyotocabinet6HashDB16trim_free_blocksEll@Base 1.2.31
 _ZN12kyotocabinet6HashDB16write_free_blockElmPc@Base 1.2.31
 _ZN12kyotocabinet6HashDB17abort_transactionEv@Base 1.2.31
 _ZN12kyotocabinet6HashDB17begin_transactionEb@Base 1.2.31
 _ZN12kyotocabinet6HashDB17insert_free_blockElm@Base 1.2.31
 _ZN12kyotocabinet6HashDB17tune_meta_triggerEPNS_7BasicDB11MetaTriggerE@Base 1.2.31
 _ZN12kyotocabinet6HashDB18commit_transactionEv@Base 1.2.31
 _ZN12kyotocabinet6HashDB19calc_record_paddingEm@Base 1.2.31
 _ZN12kyotocabinet6HashDB21begin_transaction_tryEb@Base 1.2.31
 _ZN12kyotocabinet6HashDB22abort_auto_transactionEv@Base 1.2.31
 _ZN12kyotocabinet6HashDB22begin_auto_transactionEv@Base 1.2.31
 _ZN12kyotocabinet6HashDB22begin_transaction_implEv@Base 1.2.31
 _ZN12kyotocabinet6HashDB22dump_empty_free_blocksEv@Base 1.2.31
 _ZN12kyotocabinet6HashDB23commit_auto_transactionEv@Base 1.2.31
 _ZN12kyotocabinet6HashDB4openERKSsj@Base 1.2.31
 _ZN12kyotocabinet6HashDB4pathEv@Base 1.2.31
 _ZN12kyotocabinet6HashDB4sizeEv@Base 1.2.31
 _ZN12kyotocabinet6HashDB4typeEv@Base 1.2.31
 _ZN12kyotocabinet6HashDB5clearEv@Base 1.2.31
 _ZN12kyotocabinet6HashDB5closeEv@Base 1.2.31
 _ZN12kyotocabinet6HashDB5countEv@Base 1.2.31
 _ZN12kyotocabinet6HashDB6Cursor2dbEv@Base 1.2.31
 _ZN12kyotocabinet6HashDB6Cursor4jumpEPKcm@Base 1.2.31
 _ZN12kyotocabinet6HashDB6Cursor4jumpERKSs@Base 1.2.31
 _ZN12kyotocabinet6HashDB6Cursor4jumpEv@Base 1.2.31
 _ZN12kyotocabinet6HashDB6Cursor4stepEv@Base 1.2.31
 _ZN12kyotocabinet6HashDB6Cursor6acceptEPNS_2DB7VisitorEbb@Base 1.2.31
 _ZN12kyotocabinet6HashDB6Cursor9jump_backEPKcm@Base 1.2.31
 _ZN12kyotocabinet6HashDB6Cursor9jump_backERKSs@Base 1.2.31
 _ZN12kyotocabinet6HashDB6Cursor9jump_backEv@Base 1.2.31
 _ZN12kyotocabinet6HashDB6Cursor9step_backEv@Base 1.2.31
 _ZN12kyotocabinet6HashDB6Cursor9step_implEPNS0_6RecordEPcl@Base 1.2.31
 _ZN12kyotocabinet6HashDB6CursorC1EPS0_@Base 1.2.31
 _ZN12kyotocabinet6HashDB6CursorD0Ev@Base 1.2.31
 _ZN12kyotocabinet6HashDB6CursorD1Ev@Base 1.2.31
 _ZN12kyotocabinet6HashDB6acceptEPKcmPNS_2DB7VisitorEb@Base 1.2.31
 _ZN12kyotocabinet6HashDB6cursorEv@Base 1.2.31
 _ZN12kyotocabinet6HashDB6reportEPKciS2_NS_7BasicDB6Logger4KindES2_z@Base 1.2.31
 _ZN12kyotocabinet6HashDB6statusEPSt3mapISsSsSt4lessISsESaISt4pairIKSsSsEEE@Base 1.2.31
 _ZN12kyotocabinet6HashDB7iterateEPNS_2DB7VisitorEbPNS_7BasicDB15ProgressCheckerE@Base 1.2.31
 _ZN12kyotocabinet6HashDB8Repeater10visit_fullEPKcmS3_mPm@Base 1.2.31
 _ZN12kyotocabinet6HashDB8RepeaterC1EPKcm@Base 1.2.31
 _ZN12kyotocabinet6HashDB8RepeaterD0Ev@Base 1.2.31
 _ZN12kyotocabinet6HashDB8RepeaterD1Ev@Base 1.2.31
 _ZN12kyotocabinet6HashDB8set_flagEhb@Base 1.2.31
 _ZN12kyotocabinet6HashDB8tune_fbpEa@Base 1.2.31
 _ZN12kyotocabinet6HashDB8tune_mapEl@Base 1.2.31
 _ZN12kyotocabinet6HashDB9FreeBlockD1Ev@Base 1.2.31
 _ZN12kyotocabinet6HashDB9calc_metaEv@Base 1.2.31
 _ZN12kyotocabinet6HashDB9cut_chainEPNS0_6RecordEPcll@Base 1.2.31
 _ZN12kyotocabinet6HashDB9dump_metaEv@Base 1.2.31
 _ZN12kyotocabinet6HashDB9fold_hashEm@Base 1.2.31
 _ZN12kyotocabinet6HashDB9load_metaEv@Base 1.2.31
 _ZN12kyotocabinet6HashDB9recoveredEv@Base 1.2.31
 _ZN12kyotocabinet6HashDB9set_chainEll@Base 1.2.31
 _ZN12kyotocabinet6HashDB9set_errorEPKciS2_NS_7BasicDB5Error4CodeES2_@Base 1.2.31
 _ZN12kyotocabinet6HashDB9trim_fileERKSs@Base 1.2.31
 _ZN12kyotocabinet6HashDB9tune_typeEa@Base 1.2.31
 _ZN12kyotocabinet6HashDBC1Ev@Base 1.2.31
 _ZN12kyotocabinet6HashDBD0Ev@Base 1.2.31
 _ZN12kyotocabinet6HashDBD1Ev@Base 1.2.31
 _ZN12kyotocabinet6LIBREVE@Base 1.2.31
 _ZN12kyotocabinet6LIBVERE@Base 1.2.31
 _ZN12kyotocabinet6PolyDB11accept_bulkERKSt6vectorISsSaISsEEPNS_2DB7VisitorEb@Base 1.2.31
 _ZN12kyotocabinet6PolyDB11match_regexERKSsPSt6vectorISsSaISsEElPNS_7BasicDB15ProgressCheckerE@Base 1.2.31
 _ZN12kyotocabinet6PolyDB11synchronizeEbPNS_7BasicDB13FileProcessorEPNS1_15ProgressCheckerE@Base 1.2.31
 _ZN12kyotocabinet6PolyDB11tune_loggerEPNS_7BasicDB6LoggerEj@Base 1.2.31
 _ZN12kyotocabinet6PolyDB12StreamLogger3logEPKciS3_NS_7BasicDB6Logger4KindES3_@Base 1.2.31
 _ZN12kyotocabinet6PolyDB12StreamLoggerC1EPSoPKc@Base 1.2.31
 _ZN12kyotocabinet6PolyDB12StreamLoggerD0Ev@Base 1.2.31
 _ZN12kyotocabinet6PolyDB12StreamLoggerD1Ev@Base 1.2.31
 _ZN12kyotocabinet6PolyDB12match_prefixERKSsPSt6vectorISsSaISsEElPNS_7BasicDB15ProgressCheckerE@Base 1.2.31
 _ZN12kyotocabinet6PolyDB15end_transactionEb@Base 1.2.31
 _ZN12kyotocabinet6PolyDB17StreamMetaTrigger7triggerENS_7BasicDB11MetaTrigger4KindEPKc@Base 1.2.31
 _ZN12kyotocabinet6PolyDB17StreamMetaTriggerC1EPSoPKc@Base 1.2.31
 _ZN12kyotocabinet6PolyDB17StreamMetaTriggerD0Ev@Base 1.2.31
 _ZN12kyotocabinet6PolyDB17StreamMetaTriggerD1Ev@Base 1.2.31
 _ZN12kyotocabinet6PolyDB17begin_transactionEb@Base 1.2.31
 _ZN12kyotocabinet6PolyDB17tune_meta_triggerEPNS_7BasicDB11MetaTriggerE@Base 1.2.31
 _ZN12kyotocabinet6PolyDB21begin_transaction_tryEb@Base 1.2.31
 _ZN12kyotocabinet6PolyDB4openERKSsj@Base 1.2.31
 _ZN12kyotocabinet6PolyDB4pathEv@Base 1.2.31
 _ZN12kyotocabinet6PolyDB4sizeEv@Base 1.2.31
 _ZN12kyotocabinet6PolyDB5clearEv@Base 1.2.31
 _ZN12kyotocabinet6PolyDB5closeEv@Base 1.2.31
 _ZN12kyotocabinet6PolyDB5countEv@Base 1.2.31
 _ZN12kyotocabinet6PolyDB5mergeEPPNS_7BasicDBEmNS0_9MergeModeEPNS1_15ProgressCheckerE@Base 1.2.31
 _ZN12kyotocabinet6PolyDB6Cursor2dbEv@Base 1.2.31
 _ZN12kyotocabinet6PolyDB6Cursor4jumpEPKcm@Base 1.2.31
 _ZN12kyotocabinet6PolyDB6Cursor4jumpERKSs@Base 1.2.31
 _ZN12kyotocabinet6PolyDB6Cursor4jumpEv@Base 1.2.31
 _ZN12kyotocabinet6PolyDB6Cursor4stepEv@Base 1.2.31
 _ZN12kyotocabinet6PolyDB6Cursor6acceptEPNS_2DB7VisitorEbb@Base 1.2.31
 _ZN12kyotocabinet6PolyDB6Cursor9jump_backEPKcm@Base 1.2.31
 _ZN12kyotocabinet6PolyDB6Cursor9jump_backERKSs@Base 1.2.31
 _ZN12kyotocabinet6PolyDB6Cursor9jump_backEv@Base 1.2.31
 _ZN12kyotocabinet6PolyDB6Cursor9step_backEv@Base 1.2.31
 _ZN12kyotocabinet6PolyDB6CursorC1EPS0_@Base 1.2.31
 _ZN12kyotocabinet6PolyDB6CursorD0Ev@Base 1.2.31
 _ZN12kyotocabinet6PolyDB6CursorD1Ev@Base 1.2.31
 _ZN12kyotocabinet6PolyDB6acceptEPKcmPNS_2DB7VisitorEb@Base 1.2.31
 _ZN12kyotocabinet6PolyDB6cursorEv@Base 1.2.31
 _ZN12kyotocabinet6PolyDB6statusEPSt3mapISsSsSt4lessISsESaISt4pairIKSsSsEEE@Base 1.2.31
 _ZN12kyotocabinet6PolyDB7iterateEPNS_2DB7VisitorEbPNS_7BasicDB15ProgressCheckerE@Base 1.2.31
 _ZN12kyotocabinet6PolyDB9MergeLineD1Ev@Base 1.2.31
 _ZN12kyotocabinet6PolyDB9set_errorEPKciS2_NS_7BasicDB5Error4CodeES2_@Base 1.2.31
 _ZN12kyotocabinet6PolyDBC1Ev@Base 1.2.31
 _ZN12kyotocabinet6PolyDBD0Ev@Base 1.2.31
 _ZN12kyotocabinet6PolyDBD1Ev@Base 1.2.31
 _ZN12kyotocabinet6RWLock11lock_readerEv@Base 1.2.31
 _ZN12kyotocabinet6RWLock11lock_writerEv@Base 1.2.31
 _ZN12kyotocabinet6RWLock15lock_reader_tryEv@Base 1.2.31
 _ZN12kyotocabinet6RWLock15lock_writer_tryEv@Base 1.2.31
 _ZN12kyotocabinet6RWLock6unlockEv@Base 1.2.31
 _ZN12kyotocabinet6RWLockC1Ev@Base 1.2.31
 _ZN12kyotocabinet6RWLockC2Ev@Base 1.2.31
 _ZN12kyotocabinet6RWLockD1Ev@Base 1.2.31
 _ZN12kyotocabinet6RWLockD2Ev@Base 1.2.31
 _ZN12kyotocabinet6TSDKey3setEPv@Base 1.2.31
 _ZN12kyotocabinet6TSDKeyC1EPFvPvE@Base 1.2.31
 _ZN12kyotocabinet6TSDKeyC1Ev@Base 1.2.31
 _ZN12kyotocabinet6TSDKeyC2EPFvPvE@Base 1.2.31
 _ZN12kyotocabinet6TSDKeyC2Ev@Base 1.2.31
 _ZN12kyotocabinet6TSDKeyD1Ev@Base 1.2.31
 _ZN12kyotocabinet6TSDKeyD2Ev@Base 1.2.31
 _ZN12kyotocabinet6Thread4exitEv@Base 1.2.31
 _ZN12kyotocabinet6Thread4hashEv@Base 1.2.31
 _ZN12kyotocabinet6Thread4joinEv@Base 1.2.31
 _ZN12kyotocabinet6Thread5chillEv@Base 1.2.36
 _ZN12kyotocabinet6Thread5sleepEd@Base 1.2.31
 _ZN12kyotocabinet6Thread5startEv@Base 1.2.31
 _ZN12kyotocabinet6Thread5yieldEv@Base 1.2.31
 _ZN12kyotocabinet6Thread6detachEv@Base 1.2.31
 _ZN12kyotocabinet6ThreadC1Ev@Base 1.2.31
 _ZN12kyotocabinet6ThreadC2Ev@Base 1.2.31
 _ZN12kyotocabinet6ThreadD0Ev@Base 1.2.31
 _ZN12kyotocabinet6ThreadD1Ev@Base 1.2.31
 _ZN12kyotocabinet6ThreadD2Ev@Base 1.2.31
 _ZN12kyotocabinet6chkinfEd@Base 1.2.31
 _ZN12kyotocabinet6chknanEd@Base 1.2.31
 _ZN12kyotocabinet6getenvEPKc@Base 1.2.31
 _ZN12kyotocabinet6getpidEv@Base 1.2.31
 _ZN12kyotocabinet6hton16Et@Base 1.2.31
 _ZN12kyotocabinet6hton64Em@Base 1.2.31
 _ZN12kyotocabinet6ntoh16Et@Base 1.2.31
 _ZN12kyotocabinet6ntoh64Em@Base 1.2.31
 _ZN12kyotocabinet7BasicDB11MetaTriggerC2Ev@Base 1.2.31
 _ZN12kyotocabinet7BasicDB11MetaTriggerD0Ev@Base 1.2.31
 _ZN12kyotocabinet7BasicDB11MetaTriggerD1Ev@Base 1.2.31
 _ZN12kyotocabinet7BasicDB11MetaTriggerD2Ev@Base 1.2.31
 _ZN12kyotocabinet7BasicDB11remove_bulkERKSt6vectorISsSaISsEEb@Base 1.2.32
 _ZN12kyotocabinet7BasicDB13FileProcessorC2Ev@Base 1.2.31
 _ZN12kyotocabinet7BasicDB13FileProcessorD0Ev@Base 1.2.31
 _ZN12kyotocabinet7BasicDB13FileProcessorD1Ev@Base 1.2.31
 _ZN12kyotocabinet7BasicDB13FileProcessorD2Ev@Base 1.2.31
 _ZN12kyotocabinet7BasicDB13dump_snapshotEPSoPNS0_15ProgressCheckerE@Base 1.2.31
 _ZN12kyotocabinet7BasicDB13dump_snapshotERKSsPNS0_15ProgressCheckerE@Base 1.2.31
 _ZN12kyotocabinet7BasicDB13load_snapshotEPSiPNS0_15ProgressCheckerE@Base 1.2.31
 _ZN12kyotocabinet7BasicDB13load_snapshotERKSsPNS0_15ProgressCheckerE@Base 1.2.31
 _ZN12kyotocabinet7BasicDB16increment_doubleEPKcmd@Base 1.2.31
 _ZN12kyotocabinet7BasicDB16increment_doubleERKSsd@Base 1.2.31
 _ZN12kyotocabinet7BasicDB3addEPKcmS2_m@Base 1.2.31
 _ZN12kyotocabinet7BasicDB3addERKSsS2_@Base 1.2.31
 _ZN12kyotocabinet7BasicDB3casEPKcmS2_mS2_m@Base 1.2.31
 _ZN12kyotocabinet7BasicDB3casERKSsS2_S2_@Base 1.2.31
 _ZN12kyotocabinet7BasicDB3getEPKcmPcm@Base 1.2.31
 _ZN12kyotocabinet7BasicDB3getEPKcmPm@Base 1.2.31
 _ZN12kyotocabinet7BasicDB3getERKSs@Base 1.2.31
 _ZN12kyotocabinet7BasicDB3setEPKcmS2_m@Base 1.2.31
 _ZN12kyotocabinet7BasicDB3setERKSsS2_@Base 1.2.31
 _ZN12kyotocabinet7BasicDB4copyERKSsPNS0_15ProgressCheckerE@Base 1.2.31
 _ZN12kyotocabinet7BasicDB5Error3setENS1_4CodeEPKc@Base 1.2.31
 _ZN12kyotocabinet7BasicDB5Error8codenameENS1_4CodeE@Base 1.2.31
 _ZN12kyotocabinet7BasicDB5ErrorC1ERKS1_@Base 1.2.31
 _ZN12kyotocabinet7BasicDB5ErrorC1Ev@Base 1.2.31
 _ZN12kyotocabinet7BasicDB5ErrorD1Ev@Base 1.2.31
 _ZN12kyotocabinet7BasicDB6Cursor13set_value_strERKSsb@Base 1.2.31
 _ZN12kyotocabinet7BasicDB6Cursor3getEPmPPKcS2_b@Base 1.2.31
 _ZN12kyotocabinet7BasicDB6Cursor5errorEv@Base 1.2.31
 _ZN12kyotocabinet7BasicDB6Cursor6removeEv@Base 1.2.31
 _ZN12kyotocabinet7BasicDB6Cursor7get_keyEPmb@Base 1.2.31
 _ZN12kyotocabinet7BasicDB6Cursor7get_keyEb@Base 1.2.31
 _ZN12kyotocabinet7BasicDB6Cursor8get_pairEb@Base 1.2.31
 _ZN12kyotocabinet7BasicDB6Cursor9get_valueEPmb@Base 1.2.31
 _ZN12kyotocabinet7BasicDB6Cursor9get_valueEb@Base 1.2.31
 _ZN12kyotocabinet7BasicDB6Cursor9set_valueEPKcmb@Base 1.2.31
 _ZN12kyotocabinet7BasicDB6CursorC2Ev@Base 1.2.31
 _ZN12kyotocabinet7BasicDB6CursorD0Ev@Base 1.2.31
 _ZN12kyotocabinet7BasicDB6CursorD1Ev@Base 1.2.31
 _ZN12kyotocabinet7BasicDB6CursorD2Ev@Base 1.2.31
 _ZN12kyotocabinet7BasicDB6LoggerC2Ev@Base 1.2.31
 _ZN12kyotocabinet7BasicDB6LoggerD0Ev@Base 1.2.31
 _ZN12kyotocabinet7BasicDB6LoggerD1Ev@Base 1.2.31
 _ZN12kyotocabinet7BasicDB6LoggerD2Ev@Base 1.2.31
 _ZN12kyotocabinet7BasicDB6appendEPKcmS2_m@Base 1.2.31
 _ZN12kyotocabinet7BasicDB6appendERKSsS2_@Base 1.2.31
 _ZN12kyotocabinet7BasicDB6removeEPKcm@Base 1.2.31
 _ZN12kyotocabinet7BasicDB6removeERKSs@Base 1.2.31
 _ZN12kyotocabinet7BasicDB7replaceEPKcmS2_m@Base 1.2.31
 _ZN12kyotocabinet7BasicDB7replaceERKSsS2_@Base 1.2.31
 _ZN12kyotocabinet7BasicDB8get_bulkERKSt6vectorISsSaISsEEPSt3mapISsSsSt4lessISsESaISt4pairIKSsSsEEEb@Base 1.2.32
 _ZN12kyotocabinet7BasicDB8set_bulkERKSt3mapISsSsSt4lessISsESaISt4pairIKSsSsEEEb@Base 1.2.32
 _ZN12kyotocabinet7BasicDB9incrementEPKcml@Base 1.2.31
 _ZN12kyotocabinet7BasicDB9incrementERKSsl@Base 1.2.31
 _ZN12kyotocabinet7BasicDBC2Ev@Base 1.2.31
 _ZN12kyotocabinet7BasicDBD0Ev@Base 1.2.31
 _ZN12kyotocabinet7BasicDBD1Ev@Base 1.2.31
 _ZN12kyotocabinet7BasicDBD2Ev@Base 1.2.31
 _ZN12kyotocabinet7CacheDB10clear_slotEPNS0_4SlotE@Base 1.2.31
 _ZN12kyotocabinet7CacheDB10count_implEv@Base 1.2.31
 _ZN12kyotocabinet7CacheDB11accept_bulkERKSt6vectorISsSaISsEEPNS_2DB7VisitorEb@Base 1.2.31
 _ZN12kyotocabinet7CacheDB11accept_implEPNS0_4SlotEmPKcmPNS_2DB7VisitorEPNS_10CompressorEb@Base 1.2.31
 _ZN12kyotocabinet7CacheDB11hash_recordEPKcm@Base 1.2.31
 _ZN12kyotocabinet7CacheDB11reorganizedEv@Base 1.2.31
 _ZN12kyotocabinet7CacheDB11synchronizeEbPNS_7BasicDB13FileProcessorEPNS1_15ProgressCheckerE@Base 1.2.31
 _ZN12kyotocabinet7CacheDB11tune_loggerEPNS_7BasicDB6LoggerEj@Base 1.2.31
 _ZN12kyotocabinet7CacheDB12compare_keysEPKcmS2_m@Base 1.2.31
 _ZN12kyotocabinet7CacheDB12destroy_slotEPNS0_4SlotE@Base 1.2.31
 _ZN12kyotocabinet7CacheDB12trigger_metaENS_7BasicDB11MetaTrigger4KindEPKc@Base 1.2.31
 _ZN12kyotocabinet7CacheDB12tune_bucketsEl@Base 1.2.31
 _ZN12kyotocabinet7CacheDB12tune_optionsEa@Base 1.2.31
 _ZN12kyotocabinet7CacheDB13report_valistEPKciS2_NS_7BasicDB6Logger4KindES2_P13__va_list_tag@Base 1.2.31
 _ZN12kyotocabinet7CacheDB14adjust_cursorsEPNS0_6RecordES2_@Base 1.2.31
 _ZN12kyotocabinet7CacheDB14escape_cursorsEPNS0_6RecordE@Base 1.2.31
 _ZN12kyotocabinet7CacheDB14tune_alignmentEa@Base 1.2.31
 _ZN12kyotocabinet7CacheDB15disable_cursorsEv@Base 1.2.31
 _ZN12kyotocabinet7CacheDB15end_transactionEb@Base 1.2.31
 _ZN12kyotocabinet7CacheDB15initialize_slotEPNS0_4SlotEmmm@Base 1.2.31
 _ZN12kyotocabinet7CacheDB15tune_compressorEPNS_10CompressorE@Base 1.2.31
 _ZN12kyotocabinet7CacheDB17apply_slot_trlogsEPNS0_4SlotE@Base 1.2.31
 _ZN12kyotocabinet7CacheDB17begin_transactionEb@Base 1.2.31
 _ZN12kyotocabinet7CacheDB17tune_meta_triggerEPNS_7BasicDB11MetaTriggerE@Base 1.2.31
 _ZN12kyotocabinet7CacheDB20adjust_slot_capacityEPNS0_4SlotE@Base 1.2.31
 _ZN12kyotocabinet7CacheDB21begin_transaction_tryEb@Base 1.2.31
 _ZN12kyotocabinet7CacheDB4SlotC1Ev@Base 1.2.31
 _ZN12kyotocabinet7CacheDB4SlotD1Ev@Base 1.2.31
 _ZN12kyotocabinet7CacheDB4openERKSsj@Base 1.2.31
 _ZN12kyotocabinet7CacheDB4pathEv@Base 1.2.31
 _ZN12kyotocabinet7CacheDB4sizeEv@Base 1.2.31
 _ZN12kyotocabinet7CacheDB4typeEv@Base 1.2.31
 _ZN12kyotocabinet7CacheDB5clearEv@Base 1.2.31
 _ZN12kyotocabinet7CacheDB5closeEv@Base 1.2.31
 _ZN12kyotocabinet7CacheDB5countEv@Base 1.2.31
 _ZN12kyotocabinet7CacheDB6Cursor2dbEv@Base 1.2.31
 _ZN12kyotocabinet7CacheDB6Cursor4jumpEPKcm@Base 1.2.31
 _ZN12kyotocabinet7CacheDB6Cursor4jumpERKSs@Base 1.2.31
 _ZN12kyotocabinet7CacheDB6Cursor4jumpEv@Base 1.2.31
 _ZN12kyotocabinet7CacheDB6Cursor4stepEv@Base 1.2.31
 _ZN12kyotocabinet7CacheDB6Cursor6acceptEPNS_2DB7VisitorEbb@Base 1.2.31
 _ZN12kyotocabinet7CacheDB6Cursor9jump_backEPKcm@Base 1.2.31
 _ZN12kyotocabinet7CacheDB6Cursor9jump_backERKSs@Base 1.2.31
 _ZN12kyotocabinet7CacheDB6Cursor9jump_backEv@Base 1.2.31
 _ZN12kyotocabinet7CacheDB6Cursor9step_backEv@Base 1.2.31
 _ZN12kyotocabinet7CacheDB6Cursor9step_implEv@Base 1.2.31
 _ZN12kyotocabinet7CacheDB6CursorC1EPS0_@Base 1.2.31
 _ZN12kyotocabinet7CacheDB6CursorD0Ev@Base 1.2.31
 _ZN12kyotocabinet7CacheDB6CursorD1Ev@Base 1.2.31
 _ZN12kyotocabinet7CacheDB6Setter10visit_fullEPKcmS3_mPm@Base 1.2.31
 _ZN12kyotocabinet7CacheDB6Setter11visit_emptyEPKcmPm@Base 1.2.31
 _ZN12kyotocabinet7CacheDB6SetterC1EPKcm@Base 1.2.31
 _ZN12kyotocabinet7CacheDB6SetterD0Ev@Base 1.2.31
 _ZN12kyotocabinet7CacheDB6SetterD1Ev@Base 1.2.31
 _ZN12kyotocabinet7CacheDB6acceptEPKcmPNS_2DB7VisitorEb@Base 1.2.31
 _ZN12kyotocabinet7CacheDB6cursorEv@Base 1.2.31
 _ZN12kyotocabinet7CacheDB6reportEPKciS2_NS_7BasicDB6Logger4KindES2_z@Base 1.2.31
 _ZN12kyotocabinet7CacheDB6statusEPSt3mapISsSsSt4lessISsESaISt4pairIKSsSsEEE@Base 1.2.31
 _ZN12kyotocabinet7CacheDB7Remover10visit_fullEPKcmS3_mPm@Base 1.2.31
 _ZN12kyotocabinet7CacheDB7RemoverC1Ev@Base 1.2.31
 _ZN12kyotocabinet7CacheDB7RemoverD0Ev@Base 1.2.31
 _ZN12kyotocabinet7CacheDB7RemoverD1Ev@Base 1.2.31
 _ZN12kyotocabinet7CacheDB7TranLogC1EPKcm@Base 1.2.31
 _ZN12kyotocabinet7CacheDB7TranLogC1EPKcmS3_m@Base 1.2.31
 _ZN12kyotocabinet7CacheDB7TranLogC1ERKS1_@Base 1.2.31
 _ZN12kyotocabinet7CacheDB7TranLogD1Ev@Base 1.2.31
 _ZN12kyotocabinet7CacheDB7iterateEPNS_2DB7VisitorEbPNS_7BasicDB15ProgressCheckerE@Base 1.2.31
 _ZN12kyotocabinet7CacheDB8Repeater10visit_fullEPKcmS3_mPm@Base 1.2.31
 _ZN12kyotocabinet7CacheDB8RepeaterC1EPKcm@Base 1.2.31
 _ZN12kyotocabinet7CacheDB8RepeaterD0Ev@Base 1.2.31
 _ZN12kyotocabinet7CacheDB8RepeaterD1Ev@Base 1.2.31
 _ZN12kyotocabinet7CacheDB8cap_sizeEl@Base 1.2.31
 _ZN12kyotocabinet7CacheDB8tune_fbpEa@Base 1.2.31
 _ZN12kyotocabinet7CacheDB9cap_countEl@Base 1.2.31
 _ZN12kyotocabinet7CacheDB9fold_hashEm@Base 1.2.31
 _ZN12kyotocabinet7CacheDB9recoveredEv@Base 1.2.31
 _ZN12kyotocabinet7CacheDB9set_errorEPKciS2_NS_7BasicDB5Error4CodeES2_@Base 1.2.31
 _ZN12kyotocabinet7CacheDB9size_implEv@Base 1.2.31
 _ZN12kyotocabinet7CacheDB9tune_typeEa@Base 1.2.31
 _ZN12kyotocabinet7CacheDBC1Ev@Base 1.2.31
 _ZN12kyotocabinet7CacheDBD0Ev@Base 1.2.31
 _ZN12kyotocabinet7CacheDBD1Ev@Base 1.2.31
 _ZN12kyotocabinet7CondVar4waitEPNS_5MutexE@Base 1.2.31
 _ZN12kyotocabinet7CondVar4waitEPNS_5MutexEd@Base 1.2.31
 _ZN12kyotocabinet7CondVar6signalEv@Base 1.2.31
 _ZN12kyotocabinet7CondVar9broadcastEv@Base 1.2.31
 _ZN12kyotocabinet7CondVarC1Ev@Base 1.2.31
 _ZN12kyotocabinet7CondVarC2Ev@Base 1.2.31
 _ZN12kyotocabinet7CondVarD1Ev@Base 1.2.31
 _ZN12kyotocabinet7CondVarD2Ev@Base 1.2.31
 _ZN12kyotocabinet7PlantDBINS_5DirDBELh65EE11accept_bulkERKSt6vectorISsSaISsEEPNS_2DB7VisitorEb@Base 1.2.31
 _ZN12kyotocabinet7PlantDBINS_5DirDBELh65EE11accept_implEPNS2_8LeafNodeEPNS2_6RecordEPNS_2DB7VisitorE@Base 1.2.31
 _ZN12kyotocabinet7PlantDBINS_5DirDBELh65EE11search_treeEPNS2_4LinkEbPlPi@Base 1.2.31
 _ZN12kyotocabinet7PlantDBINS_5DirDBELh65EE11synchronizeEbPNS_7BasicDB13FileProcessorEPNS3_15ProgressCheckerE@Base 1.2.31
 _ZN12kyotocabinet7PlantDBINS_5DirDBELh65EE11tune_loggerEPNS_7BasicDB6LoggerEj@Base 1.2.31
 _ZN12kyotocabinet7PlantDBINS_5DirDBELh65EE12recalc_countEv@Base 1.2.31
 _ZN12kyotocabinet7PlantDBINS_5DirDBELh65EE12trigger_metaENS_7BasicDB11MetaTrigger4KindEPKc@Base 1.2.31
 _ZN12kyotocabinet7PlantDBINS_5DirDBELh65EE12tune_bucketsEl@Base 1.2.31
 _ZN12kyotocabinet7PlantDBINS_5DirDBELh65EE12tune_optionsEa@Base 1.2.31
 _ZN12kyotocabinet7PlantDBINS_5DirDBELh65EE13sub_link_treeEPNS2_9InnerNodeElPli@Base 1.2.31
 _ZN12kyotocabinet7PlantDBINS_5DirDBELh65EE14LinkComparatorC1Ev@Base 1.2.31
 _ZN12kyotocabinet7PlantDBINS_5DirDBELh65EE14escape_cursorsEll@Base 1.2.31
 _ZN12kyotocabinet7PlantDBINS_5DirDBELh65EE14escape_cursorsEllPNS2_6RecordE@Base 1.2.31
 _ZN12kyotocabinet7PlantDBINS_5DirDBELh65EE14load_leaf_nodeElb@Base 1.2.31
 _ZN12kyotocabinet7PlantDBINS_5DirDBELh65EE14save_leaf_nodeEPNS2_8LeafNodeE@Base 1.2.31
 _ZN12kyotocabinet7PlantDBINS_5DirDBELh65EE15disable_cursorsEv@Base 1.2.31
 _ZN12kyotocabinet7PlantDBINS_5DirDBELh65EE15end_transactionEb@Base 1.2.31
 _ZN12kyotocabinet7PlantDBINS_5DirDBELh65EE15flush_leaf_nodeEPNS2_8LeafNodeEb@Base 1.2.31
 _ZN12kyotocabinet7PlantDBINS_5DirDBELh65EE15load_inner_nodeEl@Base 1.2.31
 _ZN12kyotocabinet7PlantDBINS_5DirDBELh65EE15reorganize_fileEj@Base 1.2.31
 _ZN12kyotocabinet7PlantDBINS_5DirDBELh65EE15reorganize_treeEPNS2_8LeafNodeEPli@Base 1.2.31
 _ZN12kyotocabinet7PlantDBINS_5DirDBELh65EE15save_inner_nodeEPNS2_9InnerNodeE@Base 1.2.31
 _ZN12kyotocabinet7PlantDBINS_5DirDBELh65EE15tune_comparatorEPNS_10ComparatorE@Base 1.2.31
 _ZN12kyotocabinet7PlantDBINS_5DirDBELh65EE15tune_compressorEPNS_10CompressorE@Base 1.2.31
 _ZN12kyotocabinet7PlantDBINS_5DirDBELh65EE15tune_page_cacheEl@Base 1.2.31
 _ZN12kyotocabinet7PlantDBINS_5DirDBELh65EE16RecordComparatorC1Ev@Base 1.2.31
 _ZN12kyotocabinet7PlantDBINS_5DirDBELh65EE16clean_leaf_cacheEv@Base 1.2.31
 _ZN12kyotocabinet7PlantDBINS_5DirDBELh65EE16create_leaf_nodeEll@Base 1.2.31
 _ZN12kyotocabinet7PlantDBINS_5DirDBELh65EE16divide_leaf_nodeEPNS2_8LeafNodeE@Base 1.2.31
 _ZN12kyotocabinet7PlantDBINS_5DirDBELh65EE16flush_inner_nodeEPNS2_9InnerNodeEb@Base 1.2.31
 _ZN12kyotocabinet7PlantDBINS_5DirDBELh65EE16flush_leaf_cacheEb@Base 1.2.31
 _ZN12kyotocabinet7PlantDBINS_5DirDBELh65EE17abort_transactionEv@Base 1.2.31
 _ZN12kyotocabinet7PlantDBINS_5DirDBELh65EE17begin_transactionEb@Base 1.2.31
 _ZN12kyotocabinet7PlantDBINS_5DirDBELh65EE17clean_inner_cacheEv@Base 1.2.31
 _ZN12kyotocabinet7PlantDBINS_5DirDBELh65EE17create_inner_nodeEl@Base 1.2.31
 _ZN12kyotocabinet7PlantDBINS_5DirDBELh65EE17create_leaf_cacheEv@Base 1.2.31
 _ZN12kyotocabinet7PlantDBINS_5DirDBELh65EE17delete_leaf_cacheEv@Base 1.2.31
 _ZN12kyotocabinet7PlantDBINS_5DirDBELh65EE17flush_inner_cacheEb@Base 1.2.31
 _ZN12kyotocabinet7PlantDBINS_5DirDBELh65EE17tune_meta_triggerEPNS_7BasicDB11MetaTriggerE@Base 1.2.31
 _ZN12kyotocabinet7PlantDBINS_5DirDBELh65EE18commit_transactionEv@Base 1.2.31
 _ZN12kyotocabinet7PlantDBINS_5DirDBELh65EE18create_inner_cacheEv@Base 1.2.31
 _ZN12kyotocabinet7PlantDBINS_5DirDBELh65EE18delete_inner_cacheEv@Base 1.2.31
 _ZN12kyotocabinet7PlantDBINS_5DirDBELh65EE19add_link_inner_nodeEPNS2_9InnerNodeElPKcm@Base 1.2.31
 _ZN12kyotocabinet7PlantDBINS_5DirDBELh65EE20calc_leaf_cache_sizeEv@Base 1.2.31
 _ZN12kyotocabinet7PlantDBINS_5DirDBELh65EE21begin_transaction_tryEb@Base 1.2.31
 _ZN12kyotocabinet7PlantDBINS_5DirDBELh65EE21calc_inner_cache_sizeEv@Base 1.2.31
 _ZN12kyotocabinet7PlantDBINS_5DirDBELh65EE21calc_leaf_cache_countEv@Base 1.2.31
 _ZN12kyotocabinet7PlantDBINS_5DirDBELh65EE21clean_leaf_cache_partEPNS2_8LeafSlotE@Base 1.2.31
 _ZN12kyotocabinet7PlantDBINS_5DirDBELh65EE21flush_leaf_cache_partEPNS2_8LeafSlotE@Base 1.2.31
 _ZN12kyotocabinet7PlantDBINS_5DirDBELh65EE22begin_transaction_implEb@Base 1.2.31
 _ZN12kyotocabinet7PlantDBINS_5DirDBELh65EE22calc_inner_cache_countEv@Base 1.2.31
 _ZN12kyotocabinet7PlantDBINS_5DirDBELh65EE22flush_inner_cache_partEPNS2_9InnerSlotE@Base 1.2.31
 _ZN12kyotocabinet7PlantDBINS_5DirDBELh65EE24fix_auto_synchronizationEv@Base 1.2.31
 _ZN12kyotocabinet7PlantDBINS_5DirDBELh65EE25fix_auto_transaction_leafEPNS2_8LeafNodeE@Base 1.2.31
 _ZN12kyotocabinet7PlantDBINS_5DirDBELh65EE25fix_auto_transaction_treeEv@Base 1.2.31
 _ZN12kyotocabinet7PlantDBINS_5DirDBELh65EE4openERKSsj@Base 1.2.31
 _ZN12kyotocabinet7PlantDBINS_5DirDBELh65EE4pathEv@Base 1.2.31
 _ZN12kyotocabinet7PlantDBINS_5DirDBELh65EE4sizeEv@Base 1.2.31
 _ZN12kyotocabinet7PlantDBINS_5DirDBELh65EE5clearEv@Base 1.2.31
 _ZN12kyotocabinet7PlantDBINS_5DirDBELh65EE5closeEv@Base 1.2.31
 _ZN12kyotocabinet7PlantDBINS_5DirDBELh65EE5countEv@Base 1.2.31
 _ZN12kyotocabinet7PlantDBINS_5DirDBELh65EE5rcompEv@Base 1.2.31
 _ZN12kyotocabinet7PlantDBINS_5DirDBELh65EE6Cursor11accept_atomEPNS_2DB7VisitorEbPb@Base 1.2.31
 _ZN12kyotocabinet7PlantDBINS_5DirDBELh65EE6Cursor11accept_specEPNS_2DB7VisitorEbbPb@Base 1.2.31
 _ZN12kyotocabinet7PlantDBINS_5DirDBELh65EE6Cursor12set_positionEPKcml@Base 1.2.31
 _ZN12kyotocabinet7PlantDBINS_5DirDBELh65EE6Cursor12set_positionEPNS2_6RecordEl@Base 1.2.31
 _ZN12kyotocabinet7PlantDBINS_5DirDBELh65EE6Cursor12set_positionEl@Base 1.2.31
 _ZN12kyotocabinet7PlantDBINS_5DirDBELh65EE6Cursor14clear_positionEv@Base 1.2.31
 _ZN12kyotocabinet7PlantDBINS_5DirDBELh65EE6Cursor15adjust_positionEv@Base 1.2.31
 _ZN12kyotocabinet7PlantDBINS_5DirDBELh65EE6Cursor17set_position_backEl@Base 1.2.31
 _ZN12kyotocabinet7PlantDBINS_5DirDBELh65EE6Cursor18back_position_atomEv@Base 1.2.31
 _ZN12kyotocabinet7PlantDBINS_5DirDBELh65EE6Cursor18back_position_specEPb@Base 1.2.31
 _ZN12kyotocabinet7PlantDBINS_5DirDBELh65EE6Cursor2dbEv@Base 1.2.31
 _ZN12kyotocabinet7PlantDBINS_5DirDBELh65EE6Cursor4jumpEPKcm@Base 1.2.31
 _ZN12kyotocabinet7PlantDBINS_5DirDBELh65EE6Cursor4jumpERKSs@Base 1.2.31
 _ZN12kyotocabinet7PlantDBINS_5DirDBELh65EE6Cursor4jumpEv@Base 1.2.31
 _ZN12kyotocabinet7PlantDBINS_5DirDBELh65EE6Cursor4stepEv@Base 1.2.31
 _ZN12kyotocabinet7PlantDBINS_5DirDBELh65EE6Cursor6acceptEPNS_2DB7VisitorEbb@Base 1.2.31
 _ZN12kyotocabinet7PlantDBINS_5DirDBELh65EE6Cursor9jump_backEPKcm@Base 1.2.31
 _ZN12kyotocabinet7PlantDBINS_5DirDBELh65EE6Cursor9jump_backERKSs@Base 1.2.31
 _ZN12kyotocabinet7PlantDBINS_5DirDBELh65EE6Cursor9jump_backEv@Base 1.2.31
 _ZN12kyotocabinet7PlantDBINS_5DirDBELh65EE6Cursor9step_backEv@Base 1.2.31
 _ZN12kyotocabinet7PlantDBINS_5DirDBELh65EE6CursorC1EPS2_@Base 1.2.31
 _ZN12kyotocabinet7PlantDBINS_5DirDBELh65EE6CursorD0Ev@Base 1.2.31
 _ZN12kyotocabinet7PlantDBINS_5DirDBELh65EE6CursorD1Ev@Base 1.2.31
 _ZN12kyotocabinet7PlantDBINS_5DirDBELh65EE6acceptEPKcmPNS_2DB7VisitorEb@Base 1.2.31
 _ZN12kyotocabinet7PlantDBINS_5DirDBELh65EE6cursorEv@Base 1.2.31
 _ZN12kyotocabinet7PlantDBINS_5DirDBELh65EE6reportEPKciS4_NS_7BasicDB6Logger4KindES4_z@Base 1.2.31
 _ZN12kyotocabinet7PlantDBINS_5DirDBELh65EE6statusEPSt3mapISsSsSt4lessISsESaISt4pairIKSsSsEEE@Base 1.2.31
 _ZN12kyotocabinet7PlantDBINS_5DirDBELh65EE7iterateEPNS_2DB7VisitorEbPNS_7BasicDB15ProgressCheckerE@Base 1.2.31
 _ZN12kyotocabinet7PlantDBINS_5DirDBELh65EE8LeafNodeC1Ev@Base 1.2.31
 _ZN12kyotocabinet7PlantDBINS_5DirDBELh65EE8LeafNodeD1Ev@Base 1.2.31
 _ZN12kyotocabinet7PlantDBINS_5DirDBELh65EE8LeafSlotC1Ev@Base 1.2.31
 _ZN12kyotocabinet7PlantDBINS_5DirDBELh65EE8LeafSlotD1Ev@Base 1.2.31
 _ZN12kyotocabinet7PlantDBINS_5DirDBELh65EE9InnerNodeC1Ev@Base 1.2.31
 _ZN12kyotocabinet7PlantDBINS_5DirDBELh65EE9InnerNodeD1Ev@Base 1.2.31
 _ZN12kyotocabinet7PlantDBINS_5DirDBELh65EE9InnerSlotC1Ev@Base 1.2.31
 _ZN12kyotocabinet7PlantDBINS_5DirDBELh65EE9InnerSlotD1Ev@Base 1.2.31
 _ZN12kyotocabinet7PlantDBINS_5DirDBELh65EE9dump_metaEv@Base 1.2.31
 _ZN12kyotocabinet7PlantDBINS_5DirDBELh65EE9load_metaEv@Base 1.2.31
 _ZN12kyotocabinet7PlantDBINS_5DirDBELh65EE9set_errorEPKciS4_NS_7BasicDB5Error4CodeES4_@Base 1.2.31
 _ZN12kyotocabinet7PlantDBINS_5DirDBELh65EE9tune_pageEi@Base 1.2.31
 _ZN12kyotocabinet7PlantDBINS_5DirDBELh65EEC1Ev@Base 1.2.31
 _ZN12kyotocabinet7PlantDBINS_5DirDBELh65EED0Ev@Base 1.2.31
 _ZN12kyotocabinet7PlantDBINS_5DirDBELh65EED1Ev@Base 1.2.31
 _ZN12kyotocabinet7PlantDBINS_6HashDBELh49EE11accept_bulkERKSt6vectorISsSaISsEEPNS_2DB7VisitorEb@Base 1.2.31
 _ZN12kyotocabinet7PlantDBINS_6HashDBELh49EE11accept_implEPNS2_8LeafNodeEPNS2_6RecordEPNS_2DB7VisitorE@Base 1.2.31
 _ZN12kyotocabinet7PlantDBINS_6HashDBELh49EE11search_treeEPNS2_4LinkEbPlPi@Base 1.2.31
 _ZN12kyotocabinet7PlantDBINS_6HashDBELh49EE11synchronizeEbPNS_7BasicDB13FileProcessorEPNS3_15ProgressCheckerE@Base 1.2.31
 _ZN12kyotocabinet7PlantDBINS_6HashDBELh49EE11tune_defragEl@Base 1.2.31
 _ZN12kyotocabinet7PlantDBINS_6HashDBELh49EE11tune_loggerEPNS_7BasicDB6LoggerEj@Base 1.2.31
 _ZN12kyotocabinet7PlantDBINS_6HashDBELh49EE12recalc_countEv@Base 1.2.31
 _ZN12kyotocabinet7PlantDBINS_6HashDBELh49EE12trigger_metaENS_7BasicDB11MetaTrigger4KindEPKc@Base 1.2.31
 _ZN12kyotocabinet7PlantDBINS_6HashDBELh49EE12tune_bucketsEl@Base 1.2.31
 _ZN12kyotocabinet7PlantDBINS_6HashDBELh49EE12tune_optionsEa@Base 1.2.31
 _ZN12kyotocabinet7PlantDBINS_6HashDBELh49EE13sub_link_treeEPNS2_9InnerNodeElPli@Base 1.2.31
 _ZN12kyotocabinet7PlantDBINS_6HashDBELh49EE14LinkComparatorC1Ev@Base 1.2.31
 _ZN12kyotocabinet7PlantDBINS_6HashDBELh49EE14escape_cursorsEll@Base 1.2.31
 _ZN12kyotocabinet7PlantDBINS_6HashDBELh49EE14escape_cursorsEllPNS2_6RecordE@Base 1.2.31
 _ZN12kyotocabinet7PlantDBINS_6HashDBELh49EE14load_leaf_nodeElb@Base 1.2.31
 _ZN12kyotocabinet7PlantDBINS_6HashDBELh49EE14save_leaf_nodeEPNS2_8LeafNodeE@Base 1.2.31
 _ZN12kyotocabinet7PlantDBINS_6HashDBELh49EE14tune_alignmentEa@Base 1.2.31
 _ZN12kyotocabinet7PlantDBINS_6HashDBELh49EE15disable_cursorsEv@Base 1.2.31
 _ZN12kyotocabinet7PlantDBINS_6HashDBELh49EE15end_transactionEb@Base 1.2.31
 _ZN12kyotocabinet7PlantDBINS_6HashDBELh49EE15flush_leaf_nodeEPNS2_8LeafNodeEb@Base 1.2.31
 _ZN12kyotocabinet7PlantDBINS_6HashDBELh49EE15load_inner_nodeEl@Base 1.2.31
 _ZN12kyotocabinet7PlantDBINS_6HashDBELh49EE15reorganize_fileEj@Base 1.2.31
 _ZN12kyotocabinet7PlantDBINS_6HashDBELh49EE15reorganize_treeEPNS2_8LeafNodeEPli@Base 1.2.31
 _ZN12kyotocabinet7PlantDBINS_6HashDBELh49EE15save_inner_nodeEPNS2_9InnerNodeE@Base 1.2.31
 _ZN12kyotocabinet7PlantDBINS_6HashDBELh49EE15tune_comparatorEPNS_10ComparatorE@Base 1.2.31
 _ZN12kyotocabinet7PlantDBINS_6HashDBELh49EE15tune_compressorEPNS_10CompressorE@Base 1.2.31
 _ZN12kyotocabinet7PlantDBINS_6HashDBELh49EE15tune_page_cacheEl@Base 1.2.31
 _ZN12kyotocabinet7PlantDBINS_6HashDBELh49EE16RecordComparatorC1Ev@Base 1.2.31
 _ZN12kyotocabinet7PlantDBINS_6HashDBELh49EE16clean_leaf_cacheEv@Base 1.2.31
 _ZN12kyotocabinet7PlantDBINS_6HashDBELh49EE16create_leaf_nodeEll@Base 1.2.31
 _ZN12kyotocabinet7PlantDBINS_6HashDBELh49EE16divide_leaf_nodeEPNS2_8LeafNodeE@Base 1.2.31
 _ZN12kyotocabinet7PlantDBINS_6HashDBELh49EE16flush_inner_nodeEPNS2_9InnerNodeEb@Base 1.2.31
 _ZN12kyotocabinet7PlantDBINS_6HashDBELh49EE16flush_leaf_cacheEb@Base 1.2.31
 _ZN12kyotocabinet7PlantDBINS_6HashDBELh49EE17abort_transactionEv@Base 1.2.31
 _ZN12kyotocabinet7PlantDBINS_6HashDBELh49EE17begin_transactionEb@Base 1.2.31
 _ZN12kyotocabinet7PlantDBINS_6HashDBELh49EE17clean_inner_cacheEv@Base 1.2.31
 _ZN12kyotocabinet7PlantDBINS_6HashDBELh49EE17create_inner_nodeEl@Base 1.2.31
 _ZN12kyotocabinet7PlantDBINS_6HashDBELh49EE17create_leaf_cacheEv@Base 1.2.31
 _ZN12kyotocabinet7PlantDBINS_6HashDBELh49EE17delete_leaf_cacheEv@Base 1.2.31
 _ZN12kyotocabinet7PlantDBINS_6HashDBELh49EE17flush_inner_cacheEb@Base 1.2.31
 _ZN12kyotocabinet7PlantDBINS_6HashDBELh49EE17tune_meta_triggerEPNS_7BasicDB11MetaTriggerE@Base 1.2.31
 _ZN12kyotocabinet7PlantDBINS_6HashDBELh49EE18commit_transactionEv@Base 1.2.31
 _ZN12kyotocabinet7PlantDBINS_6HashDBELh49EE18create_inner_cacheEv@Base 1.2.31
 _ZN12kyotocabinet7PlantDBINS_6HashDBELh49EE18delete_inner_cacheEv@Base 1.2.31
 _ZN12kyotocabinet7PlantDBINS_6HashDBELh49EE19add_link_inner_nodeEPNS2_9InnerNodeElPKcm@Base 1.2.31
 _ZN12kyotocabinet7PlantDBINS_6HashDBELh49EE20calc_leaf_cache_sizeEv@Base 1.2.31
 _ZN12kyotocabinet7PlantDBINS_6HashDBELh49EE21begin_transaction_tryEb@Base 1.2.31
 _ZN12kyotocabinet7PlantDBINS_6HashDBELh49EE21calc_inner_cache_sizeEv@Base 1.2.31
 _ZN12kyotocabinet7PlantDBINS_6HashDBELh49EE21calc_leaf_cache_countEv@Base 1.2.31
 _ZN12kyotocabinet7PlantDBINS_6HashDBELh49EE21clean_leaf_cache_partEPNS2_8LeafSlotE@Base 1.2.31
 _ZN12kyotocabinet7PlantDBINS_6HashDBELh49EE21flush_leaf_cache_partEPNS2_8LeafSlotE@Base 1.2.31
 _ZN12kyotocabinet7PlantDBINS_6HashDBELh49EE22begin_transaction_implEb@Base 1.2.31
 _ZN12kyotocabinet7PlantDBINS_6HashDBELh49EE22calc_inner_cache_countEv@Base 1.2.31
 _ZN12kyotocabinet7PlantDBINS_6HashDBELh49EE22flush_inner_cache_partEPNS2_9InnerSlotE@Base 1.2.31
 _ZN12kyotocabinet7PlantDBINS_6HashDBELh49EE24fix_auto_synchronizationEv@Base 1.2.31
 _ZN12kyotocabinet7PlantDBINS_6HashDBELh49EE25fix_auto_transaction_leafEPNS2_8LeafNodeE@Base 1.2.31
 _ZN12kyotocabinet7PlantDBINS_6HashDBELh49EE25fix_auto_transaction_treeEv@Base 1.2.31
 _ZN12kyotocabinet7PlantDBINS_6HashDBELh49EE4openERKSsj@Base 1.2.31
 _ZN12kyotocabinet7PlantDBINS_6HashDBELh49EE4pathEv@Base 1.2.31
 _ZN12kyotocabinet7PlantDBINS_6HashDBELh49EE4sizeEv@Base 1.2.31
 _ZN12kyotocabinet7PlantDBINS_6HashDBELh49EE5clearEv@Base 1.2.31
 _ZN12kyotocabinet7PlantDBINS_6HashDBELh49EE5closeEv@Base 1.2.31
 _ZN12kyotocabinet7PlantDBINS_6HashDBELh49EE5countEv@Base 1.2.31
 _ZN12kyotocabinet7PlantDBINS_6HashDBELh49EE5rcompEv@Base 1.2.31
 _ZN12kyotocabinet7PlantDBINS_6HashDBELh49EE6Cursor11accept_atomEPNS_2DB7VisitorEbPb@Base 1.2.31
 _ZN12kyotocabinet7PlantDBINS_6HashDBELh49EE6Cursor11accept_specEPNS_2DB7VisitorEbbPb@Base 1.2.31
 _ZN12kyotocabinet7PlantDBINS_6HashDBELh49EE6Cursor12set_positionEPKcml@Base 1.2.31
 _ZN12kyotocabinet7PlantDBINS_6HashDBELh49EE6Cursor12set_positionEPNS2_6RecordEl@Base 1.2.31
 _ZN12kyotocabinet7PlantDBINS_6HashDBELh49EE6Cursor12set_positionEl@Base 1.2.31
 _ZN12kyotocabinet7PlantDBINS_6HashDBELh49EE6Cursor14clear_positionEv@Base 1.2.31
 _ZN12kyotocabinet7PlantDBINS_6HashDBELh49EE6Cursor15adjust_positionEv@Base 1.2.31
 _ZN12kyotocabinet7PlantDBINS_6HashDBELh49EE6Cursor17set_position_backEl@Base 1.2.31
 _ZN12kyotocabinet7PlantDBINS_6HashDBELh49EE6Cursor18back_position_atomEv@Base 1.2.31
 _ZN12kyotocabinet7PlantDBINS_6HashDBELh49EE6Cursor18back_position_specEPb@Base 1.2.31
 _ZN12kyotocabinet7PlantDBINS_6HashDBELh49EE6Cursor2dbEv@Base 1.2.31
 _ZN12kyotocabinet7PlantDBINS_6HashDBELh49EE6Cursor4jumpEPKcm@Base 1.2.31
 _ZN12kyotocabinet7PlantDBINS_6HashDBELh49EE6Cursor4jumpERKSs@Base 1.2.31
 _ZN12kyotocabinet7PlantDBINS_6HashDBELh49EE6Cursor4jumpEv@Base 1.2.31
 _ZN12kyotocabinet7PlantDBINS_6HashDBELh49EE6Cursor4stepEv@Base 1.2.31
 _ZN12kyotocabinet7PlantDBINS_6HashDBELh49EE6Cursor6acceptEPNS_2DB7VisitorEbb@Base 1.2.31
 _ZN12kyotocabinet7PlantDBINS_6HashDBELh49EE6Cursor9jump_backEPKcm@Base 1.2.31
 _ZN12kyotocabinet7PlantDBINS_6HashDBELh49EE6Cursor9jump_backERKSs@Base 1.2.31
 _ZN12kyotocabinet7PlantDBINS_6HashDBELh49EE6Cursor9jump_backEv@Base 1.2.31
 _ZN12kyotocabinet7PlantDBINS_6HashDBELh49EE6Cursor9step_backEv@Base 1.2.31
 _ZN12kyotocabinet7PlantDBINS_6HashDBELh49EE6CursorC1EPS2_@Base 1.2.31
 _ZN12kyotocabinet7PlantDBINS_6HashDBELh49EE6CursorD0Ev@Base 1.2.31
 _ZN12kyotocabinet7PlantDBINS_6HashDBELh49EE6CursorD1Ev@Base 1.2.31
 _ZN12kyotocabinet7PlantDBINS_6HashDBELh49EE6acceptEPKcmPNS_2DB7VisitorEb@Base 1.2.31
 _ZN12kyotocabinet7PlantDBINS_6HashDBELh49EE6cursorEv@Base 1.2.31
 _ZN12kyotocabinet7PlantDBINS_6HashDBELh49EE6reportEPKciS4_NS_7BasicDB6Logger4KindES4_z@Base 1.2.31
 _ZN12kyotocabinet7PlantDBINS_6HashDBELh49EE6statusEPSt3mapISsSsSt4lessISsESaISt4pairIKSsSsEEE@Base 1.2.31
 _ZN12kyotocabinet7PlantDBINS_6HashDBELh49EE7iterateEPNS_2DB7VisitorEbPNS_7BasicDB15ProgressCheckerE@Base 1.2.31
 _ZN12kyotocabinet7PlantDBINS_6HashDBELh49EE8LeafNodeC1Ev@Base 1.2.31
 _ZN12kyotocabinet7PlantDBINS_6HashDBELh49EE8LeafNodeD1Ev@Base 1.2.31
 _ZN12kyotocabinet7PlantDBINS_6HashDBELh49EE8LeafSlotC1Ev@Base 1.2.31
 _ZN12kyotocabinet7PlantDBINS_6HashDBELh49EE8LeafSlotD1Ev@Base 1.2.31
 _ZN12kyotocabinet7PlantDBINS_6HashDBELh49EE8tune_fbpEa@Base 1.2.31
 _ZN12kyotocabinet7PlantDBINS_6HashDBELh49EE8tune_mapEl@Base 1.2.31
 _ZN12kyotocabinet7PlantDBINS_6HashDBELh49EE9InnerNodeC1Ev@Base 1.2.31
 _ZN12kyotocabinet7PlantDBINS_6HashDBELh49EE9InnerNodeD1Ev@Base 1.2.31
 _ZN12kyotocabinet7PlantDBINS_6HashDBELh49EE9InnerSlotC1Ev@Base 1.2.31
 _ZN12kyotocabinet7PlantDBINS_6HashDBELh49EE9InnerSlotD1Ev@Base 1.2.31
 _ZN12kyotocabinet7PlantDBINS_6HashDBELh49EE9dump_metaEv@Base 1.2.31
 _ZN12kyotocabinet7PlantDBINS_6HashDBELh49EE9load_metaEv@Base 1.2.31
 _ZN12kyotocabinet7PlantDBINS_6HashDBELh49EE9set_errorEPKciS4_NS_7BasicDB5Error4CodeES4_@Base 1.2.31
 _ZN12kyotocabinet7PlantDBINS_6HashDBELh49EE9tune_pageEi@Base 1.2.31
 _ZN12kyotocabinet7PlantDBINS_6HashDBELh49EEC1Ev@Base 1.2.31
 _ZN12kyotocabinet7PlantDBINS_6HashDBELh49EED0Ev@Base 1.2.31
 _ZN12kyotocabinet7PlantDBINS_6HashDBELh49EED1Ev@Base 1.2.31
 _ZN12kyotocabinet7PlantDBINS_7CacheDBELh33EE11accept_bulkERKSt6vectorISsSaISsEEPNS_2DB7VisitorEb@Base 1.2.31
 _ZN12kyotocabinet7PlantDBINS_7CacheDBELh33EE11accept_implEPNS2_8LeafNodeEPNS2_6RecordEPNS_2DB7VisitorE@Base 1.2.31
 _ZN12kyotocabinet7PlantDBINS_7CacheDBELh33EE11search_treeEPNS2_4LinkEbPlPi@Base 1.2.31
 _ZN12kyotocabinet7PlantDBINS_7CacheDBELh33EE11synchronizeEbPNS_7BasicDB13FileProcessorEPNS3_15ProgressCheckerE@Base 1.2.31
 _ZN12kyotocabinet7PlantDBINS_7CacheDBELh33EE11tune_loggerEPNS_7BasicDB6LoggerEj@Base 1.2.31
 _ZN12kyotocabinet7PlantDBINS_7CacheDBELh33EE12recalc_countEv@Base 1.2.31
 _ZN12kyotocabinet7PlantDBINS_7CacheDBELh33EE12trigger_metaENS_7BasicDB11MetaTrigger4KindEPKc@Base 1.2.31
 _ZN12kyotocabinet7PlantDBINS_7CacheDBELh33EE12tune_bucketsEl@Base 1.2.31
 _ZN12kyotocabinet7PlantDBINS_7CacheDBELh33EE12tune_optionsEa@Base 1.2.31
 _ZN12kyotocabinet7PlantDBINS_7CacheDBELh33EE13sub_link_treeEPNS2_9InnerNodeElPli@Base 1.2.31
 _ZN12kyotocabinet7PlantDBINS_7CacheDBELh33EE14LinkComparatorC1Ev@Base 1.2.31
 _ZN12kyotocabinet7PlantDBINS_7CacheDBELh33EE14escape_cursorsEll@Base 1.2.31
 _ZN12kyotocabinet7PlantDBINS_7CacheDBELh33EE14escape_cursorsEllPNS2_6RecordE@Base 1.2.31
 _ZN12kyotocabinet7PlantDBINS_7CacheDBELh33EE14load_leaf_nodeElb@Base 1.2.31
 _ZN12kyotocabinet7PlantDBINS_7CacheDBELh33EE14save_leaf_nodeEPNS2_8LeafNodeE@Base 1.2.31
 _ZN12kyotocabinet7PlantDBINS_7CacheDBELh33EE15disable_cursorsEv@Base 1.2.31
 _ZN12kyotocabinet7PlantDBINS_7CacheDBELh33EE15end_transactionEb@Base 1.2.31
 _ZN12kyotocabinet7PlantDBINS_7CacheDBELh33EE15flush_leaf_nodeEPNS2_8LeafNodeEb@Base 1.2.31
 _ZN12kyotocabinet7PlantDBINS_7CacheDBELh33EE15load_inner_nodeEl@Base 1.2.31
 _ZN12kyotocabinet7PlantDBINS_7CacheDBELh33EE15reorganize_fileEj@Base 1.2.31
 _ZN12kyotocabinet7PlantDBINS_7CacheDBELh33EE15reorganize_treeEPNS2_8LeafNodeEPli@Base 1.2.31
 _ZN12kyotocabinet7PlantDBINS_7CacheDBELh33EE15save_inner_nodeEPNS2_9InnerNodeE@Base 1.2.31
 _ZN12kyotocabinet7PlantDBINS_7CacheDBELh33EE15tune_comparatorEPNS_10ComparatorE@Base 1.2.31
 _ZN12kyotocabinet7PlantDBINS_7CacheDBELh33EE15tune_compressorEPNS_10CompressorE@Base 1.2.31
 _ZN12kyotocabinet7PlantDBINS_7CacheDBELh33EE15tune_page_cacheEl@Base 1.2.31
 _ZN12kyotocabinet7PlantDBINS_7CacheDBELh33EE16RecordComparatorC1Ev@Base 1.2.31
 _ZN12kyotocabinet7PlantDBINS_7CacheDBELh33EE16clean_leaf_cacheEv@Base 1.2.31
 _ZN12kyotocabinet7PlantDBINS_7CacheDBELh33EE16create_leaf_nodeEll@Base 1.2.31
 _ZN12kyotocabinet7PlantDBINS_7CacheDBELh33EE16divide_leaf_nodeEPNS2_8LeafNodeE@Base 1.2.31
 _ZN12kyotocabinet7PlantDBINS_7CacheDBELh33EE16flush_inner_nodeEPNS2_9InnerNodeEb@Base 1.2.31
 _ZN12kyotocabinet7PlantDBINS_7CacheDBELh33EE16flush_leaf_cacheEb@Base 1.2.31
 _ZN12kyotocabinet7PlantDBINS_7CacheDBELh33EE17abort_transactionEv@Base 1.2.31
 _ZN12kyotocabinet7PlantDBINS_7CacheDBELh33EE17begin_transactionEb@Base 1.2.31
 _ZN12kyotocabinet7PlantDBINS_7CacheDBELh33EE17clean_inner_cacheEv@Base 1.2.31
 _ZN12kyotocabinet7PlantDBINS_7CacheDBELh33EE17create_inner_nodeEl@Base 1.2.31
 _ZN12kyotocabinet7PlantDBINS_7CacheDBELh33EE17create_leaf_cacheEv@Base 1.2.31
 _ZN12kyotocabinet7PlantDBINS_7CacheDBELh33EE17delete_leaf_cacheEv@Base 1.2.31
 _ZN12kyotocabinet7PlantDBINS_7CacheDBELh33EE17flush_inner_cacheEb@Base 1.2.31
 _ZN12kyotocabinet7PlantDBINS_7CacheDBELh33EE17tune_meta_triggerEPNS_7BasicDB11MetaTriggerE@Base 1.2.31
 _ZN12kyotocabinet7PlantDBINS_7CacheDBELh33EE18commit_transactionEv@Base 1.2.31
 _ZN12kyotocabinet7PlantDBINS_7CacheDBELh33EE18create_inner_cacheEv@Base 1.2.31
 _ZN12kyotocabinet7PlantDBINS_7CacheDBELh33EE18delete_inner_cacheEv@Base 1.2.31
 _ZN12kyotocabinet7PlantDBINS_7CacheDBELh33EE19add_link_inner_nodeEPNS2_9InnerNodeElPKcm@Base 1.2.31
 _ZN12kyotocabinet7PlantDBINS_7CacheDBELh33EE20calc_leaf_cache_sizeEv@Base 1.2.31
 _ZN12kyotocabinet7PlantDBINS_7CacheDBELh33EE21begin_transaction_tryEb@Base 1.2.31
 _ZN12kyotocabinet7PlantDBINS_7CacheDBELh33EE21calc_inner_cache_sizeEv@Base 1.2.31
 _ZN12kyotocabinet7PlantDBINS_7CacheDBELh33EE21calc_leaf_cache_countEv@Base 1.2.31
 _ZN12kyotocabinet7PlantDBINS_7CacheDBELh33EE21clean_leaf_cache_partEPNS2_8LeafSlotE@Base 1.2.31
 _ZN12kyotocabinet7PlantDBINS_7CacheDBELh33EE21flush_leaf_cache_partEPNS2_8LeafSlotE@Base 1.2.31
 _ZN12kyotocabinet7PlantDBINS_7CacheDBELh33EE22begin_transaction_implEb@Base 1.2.31
 _ZN12kyotocabinet7PlantDBINS_7CacheDBELh33EE22calc_inner_cache_countEv@Base 1.2.31
 _ZN12kyotocabinet7PlantDBINS_7CacheDBELh33EE22flush_inner_cache_partEPNS2_9InnerSlotE@Base 1.2.31
 _ZN12kyotocabinet7PlantDBINS_7CacheDBELh33EE24fix_auto_synchronizationEv@Base 1.2.31
 _ZN12kyotocabinet7PlantDBINS_7CacheDBELh33EE25fix_auto_transaction_leafEPNS2_8LeafNodeE@Base 1.2.31
 _ZN12kyotocabinet7PlantDBINS_7CacheDBELh33EE25fix_auto_transaction_treeEv@Base 1.2.31
 _ZN12kyotocabinet7PlantDBINS_7CacheDBELh33EE4openERKSsj@Base 1.2.31
 _ZN12kyotocabinet7PlantDBINS_7CacheDBELh33EE4pathEv@Base 1.2.31
 _ZN12kyotocabinet7PlantDBINS_7CacheDBELh33EE4sizeEv@Base 1.2.31
 _ZN12kyotocabinet7PlantDBINS_7CacheDBELh33EE5clearEv@Base 1.2.31
 _ZN12kyotocabinet7PlantDBINS_7CacheDBELh33EE5closeEv@Base 1.2.31
 _ZN12kyotocabinet7PlantDBINS_7CacheDBELh33EE5countEv@Base 1.2.31
 _ZN12kyotocabinet7PlantDBINS_7CacheDBELh33EE5rcompEv@Base 1.2.31
 _ZN12kyotocabinet7PlantDBINS_7CacheDBELh33EE6Cursor11accept_atomEPNS_2DB7VisitorEbPb@Base 1.2.31
 _ZN12kyotocabinet7PlantDBINS_7CacheDBELh33EE6Cursor11accept_specEPNS_2DB7VisitorEbbPb@Base 1.2.31
 _ZN12kyotocabinet7PlantDBINS_7CacheDBELh33EE6Cursor12set_positionEPKcml@Base 1.2.31
 _ZN12kyotocabinet7PlantDBINS_7CacheDBELh33EE6Cursor12set_positionEPNS2_6RecordEl@Base 1.2.31
 _ZN12kyotocabinet7PlantDBINS_7CacheDBELh33EE6Cursor12set_positionEl@Base 1.2.31
 _ZN12kyotocabinet7PlantDBINS_7CacheDBELh33EE6Cursor14clear_positionEv@Base 1.2.31
 _ZN12kyotocabinet7PlantDBINS_7CacheDBELh33EE6Cursor15adjust_positionEv@Base 1.2.31
 _ZN12kyotocabinet7PlantDBINS_7CacheDBELh33EE6Cursor17set_position_backEl@Base 1.2.31
 _ZN12kyotocabinet7PlantDBINS_7CacheDBELh33EE6Cursor18back_position_atomEv@Base 1.2.31
 _ZN12kyotocabinet7PlantDBINS_7CacheDBELh33EE6Cursor18back_position_specEPb@Base 1.2.31
 _ZN12kyotocabinet7PlantDBINS_7CacheDBELh33EE6Cursor2dbEv@Base 1.2.31
 _ZN12kyotocabinet7PlantDBINS_7CacheDBELh33EE6Cursor4jumpEPKcm@Base 1.2.31
 _ZN12kyotocabinet7PlantDBINS_7CacheDBELh33EE6Cursor4jumpERKSs@Base 1.2.31
 _ZN12kyotocabinet7PlantDBINS_7CacheDBELh33EE6Cursor4jumpEv@Base 1.2.31
 _ZN12kyotocabinet7PlantDBINS_7CacheDBELh33EE6Cursor4stepEv@Base 1.2.31
 _ZN12kyotocabinet7PlantDBINS_7CacheDBELh33EE6Cursor6acceptEPNS_2DB7VisitorEbb@Base 1.2.31
 _ZN12kyotocabinet7PlantDBINS_7CacheDBELh33EE6Cursor9jump_backEPKcm@Base 1.2.31
 _ZN12kyotocabinet7PlantDBINS_7CacheDBELh33EE6Cursor9jump_backERKSs@Base 1.2.31
 _ZN12kyotocabinet7PlantDBINS_7CacheDBELh33EE6Cursor9jump_backEv@Base 1.2.31
 _ZN12kyotocabinet7PlantDBINS_7CacheDBELh33EE6Cursor9step_backEv@Base 1.2.31
 _ZN12kyotocabinet7PlantDBINS_7CacheDBELh33EE6CursorC1EPS2_@Base 1.2.31
 _ZN12kyotocabinet7PlantDBINS_7CacheDBELh33EE6CursorD0Ev@Base 1.2.31
 _ZN12kyotocabinet7PlantDBINS_7CacheDBELh33EE6CursorD1Ev@Base 1.2.31
 _ZN12kyotocabinet7PlantDBINS_7CacheDBELh33EE6acceptEPKcmPNS_2DB7VisitorEb@Base 1.2.31
 _ZN12kyotocabinet7PlantDBINS_7CacheDBELh33EE6cursorEv@Base 1.2.31
 _ZN12kyotocabinet7PlantDBINS_7CacheDBELh33EE6reportEPKciS4_NS_7BasicDB6Logger4KindES4_z@Base 1.2.31
 _ZN12kyotocabinet7PlantDBINS_7CacheDBELh33EE6statusEPSt3mapISsSsSt4lessISsESaISt4pairIKSsSsEEE@Base 1.2.31
 _ZN12kyotocabinet7PlantDBINS_7CacheDBELh33EE7iterateEPNS_2DB7VisitorEbPNS_7BasicDB15ProgressCheckerE@Base 1.2.31
 _ZN12kyotocabinet7PlantDBINS_7CacheDBELh33EE8LeafNodeC1Ev@Base 1.2.31
 _ZN12kyotocabinet7PlantDBINS_7CacheDBELh33EE8LeafNodeD1Ev@Base 1.2.31
 _ZN12kyotocabinet7PlantDBINS_7CacheDBELh33EE8LeafSlotC1Ev@Base 1.2.31
 _ZN12kyotocabinet7PlantDBINS_7CacheDBELh33EE8LeafSlotD1Ev@Base 1.2.31
 _ZN12kyotocabinet7PlantDBINS_7CacheDBELh33EE9InnerNodeC1Ev@Base 1.2.31
 _ZN12kyotocabinet7PlantDBINS_7CacheDBELh33EE9InnerNodeD1Ev@Base 1.2.31
 _ZN12kyotocabinet7PlantDBINS_7CacheDBELh33EE9InnerSlotC1Ev@Base 1.2.31
 _ZN12kyotocabinet7PlantDBINS_7CacheDBELh33EE9InnerSlotD1Ev@Base 1.2.31
 _ZN12kyotocabinet7PlantDBINS_7CacheDBELh33EE9dump_metaEv@Base 1.2.31
 _ZN12kyotocabinet7PlantDBINS_7CacheDBELh33EE9load_metaEv@Base 1.2.31
 _ZN12kyotocabinet7PlantDBINS_7CacheDBELh33EE9set_errorEPKciS4_NS_7BasicDB5Error4CodeES4_@Base 1.2.31
 _ZN12kyotocabinet7PlantDBINS_7CacheDBELh33EE9tune_pageEi@Base 1.2.31
 _ZN12kyotocabinet7PlantDBINS_7CacheDBELh33EEC1Ev@Base 1.2.31
 _ZN12kyotocabinet7PlantDBINS_7CacheDBELh33EED0Ev@Base 1.2.31
 _ZN12kyotocabinet7PlantDBINS_7CacheDBELh33EED1Ev@Base 1.2.31
 _ZN12kyotocabinet7ProtoDBINSt3tr113unordered_mapISsSsNS1_4hashISsEESt8equal_toISsESaISt4pairIKSsSsEEEELh16EE11accept_bulkERKSt6vectorISsSaISsEEPNS_2DB7VisitorEb@Base 1.2.31
 _ZN12kyotocabinet7ProtoDBINSt3tr113unordered_mapISsSsNS1_4hashISsEESt8equal_toISsESaISt4pairIKSsSsEEEELh16EE11synchronizeEbPNS_7BasicDB13FileProcessorEPNSD_15ProgressCheckerE@Base 1.2.31
 _ZN12kyotocabinet7ProtoDBINSt3tr113unordered_mapISsSsNS1_4hashISsEESt8equal_toISsESaISt4pairIKSsSsEEEELh16EE11tune_loggerEPNS_7BasicDB6LoggerEj@Base 1.2.31
 _ZN12kyotocabinet7ProtoDBINSt3tr113unordered_mapISsSsNS1_4hashISsEESt8equal_toISsESaISt4pairIKSsSsEEEELh16EE12trigger_metaENS_7BasicDB11MetaTrigger4KindEPKc@Base 1.2.31
 _ZN12kyotocabinet7ProtoDBINSt3tr113unordered_mapISsSsNS1_4hashISsEESt8equal_toISsESaISt4pairIKSsSsEEEELh16EE15end_transactionEb@Base 1.2.31
 _ZN12kyotocabinet7ProtoDBINSt3tr113unordered_mapISsSsNS1_4hashISsEESt8equal_toISsESaISt4pairIKSsSsEEEELh16EE17begin_transactionEb@Base 1.2.31
 _ZN12kyotocabinet7ProtoDBINSt3tr113unordered_mapISsSsNS1_4hashISsEESt8equal_toISsESaISt4pairIKSsSsEEEELh16EE17tune_meta_triggerEPNS_7BasicDB11MetaTriggerE@Base 1.2.31
 _ZN12kyotocabinet7ProtoDBINSt3tr113unordered_mapISsSsNS1_4hashISsEESt8equal_toISsESaISt4pairIKSsSsEEEELh16EE21begin_transaction_tryEb@Base 1.2.31
 _ZN12kyotocabinet7ProtoDBINSt3tr113unordered_mapISsSsNS1_4hashISsEESt8equal_toISsESaISt4pairIKSsSsEEEELh16EE4openERS8_j@Base 1.2.31
 _ZN12kyotocabinet7ProtoDBINSt3tr113unordered_mapISsSsNS1_4hashISsEESt8equal_toISsESaISt4pairIKSsSsEEEELh16EE4pathEv@Base 1.2.31
 _ZN12kyotocabinet7ProtoDBINSt3tr113unordered_mapISsSsNS1_4hashISsEESt8equal_toISsESaISt4pairIKSsSsEEEELh16EE4sizeEv@Base 1.2.31
 _ZN12kyotocabinet7ProtoDBINSt3tr113unordered_mapISsSsNS1_4hashISsEESt8equal_toISsESaISt4pairIKSsSsEEEELh16EE5clearEv@Base 1.2.31
 _ZN12kyotocabinet7ProtoDBINSt3tr113unordered_mapISsSsNS1_4hashISsEESt8equal_toISsESaISt4pairIKSsSsEEEELh16EE5closeEv@Base 1.2.31
 _ZN12kyotocabinet7ProtoDBINSt3tr113unordered_mapISsSsNS1_4hashISsEESt8equal_toISsESaISt4pairIKSsSsEEEELh16EE5countEv@Base 1.2.31
 _ZN12kyotocabinet7ProtoDBINSt3tr113unordered_mapISsSsNS1_4hashISsEESt8equal_toISsESaISt4pairIKSsSsEEEELh16EE6Cursor2dbEv@Base 1.2.31
 _ZN12kyotocabinet7ProtoDBINSt3tr113unordered_mapISsSsNS1_4hashISsEESt8equal_toISsESaISt4pairIKSsSsEEEELh16EE6Cursor4jumpEPKcm@Base 1.2.31
 _ZN12kyotocabinet7ProtoDBINSt3tr113unordered_mapISsSsNS1_4hashISsEESt8equal_toISsESaISt4pairIKSsSsEEEELh16EE6Cursor4jumpERS8_@Base 1.2.31
 _ZN12kyotocabinet7ProtoDBINSt3tr113unordered_mapISsSsNS1_4hashISsEESt8equal_toISsESaISt4pairIKSsSsEEEELh16EE6Cursor4jumpEv@Base 1.2.31
 _ZN12kyotocabinet7ProtoDBINSt3tr113unordered_mapISsSsNS1_4hashISsEESt8equal_toISsESaISt4pairIKSsSsEEEELh16EE6Cursor4stepEv@Base 1.2.31
 _ZN12kyotocabinet7ProtoDBINSt3tr113unordered_mapISsSsNS1_4hashISsEESt8equal_toISsESaISt4pairIKSsSsEEEELh16EE6Cursor6acceptEPNS_2DB7VisitorEbb@Base 1.2.31
 _ZN12kyotocabinet7ProtoDBINSt3tr113unordered_mapISsSsNS1_4hashISsEESt8equal_toISsESaISt4pairIKSsSsEEEELh16EE6Cursor9jump_backEPKcm@Base 1.2.31
 _ZN12kyotocabinet7ProtoDBINSt3tr113unordered_mapISsSsNS1_4hashISsEESt8equal_toISsESaISt4pairIKSsSsEEEELh16EE6Cursor9jump_backERS8_@Base 1.2.31
 _ZN12kyotocabinet7ProtoDBINSt3tr113unordered_mapISsSsNS1_4hashISsEESt8equal_toISsESaISt4pairIKSsSsEEEELh16EE6Cursor9jump_backEv@Base 1.2.31
 _ZN12kyotocabinet7ProtoDBINSt3tr113unordered_mapISsSsNS1_4hashISsEESt8equal_toISsESaISt4pairIKSsSsEEEELh16EE6Cursor9step_backEv@Base 1.2.31
 _ZN12kyotocabinet7ProtoDBINSt3tr113unordered_mapISsSsNS1_4hashISsEESt8equal_toISsESaISt4pairIKSsSsEEEELh16EE6CursorC1EPSC_@Base 1.2.31
 _ZN12kyotocabinet7ProtoDBINSt3tr113unordered_mapISsSsNS1_4hashISsEESt8equal_toISsESaISt4pairIKSsSsEEEELh16EE6CursorD0Ev@Base 1.2.31
 _ZN12kyotocabinet7ProtoDBINSt3tr113unordered_mapISsSsNS1_4hashISsEESt8equal_toISsESaISt4pairIKSsSsEEEELh16EE6CursorD1Ev@Base 1.2.31
 _ZN12kyotocabinet7ProtoDBINSt3tr113unordered_mapISsSsNS1_4hashISsEESt8equal_toISsESaISt4pairIKSsSsEEEELh16EE6acceptEPKcmPNS_2DB7VisitorEb@Base 1.2.31
 _ZN12kyotocabinet7ProtoDBINSt3tr113unordered_mapISsSsNS1_4hashISsEESt8equal_toISsESaISt4pairIKSsSsEEEELh16EE6cursorEv@Base 1.2.31
 _ZN12kyotocabinet7ProtoDBINSt3tr113unordered_mapISsSsNS1_4hashISsEESt8equal_toISsESaISt4pairIKSsSsEEEELh16EE6reportEPKciSE_NS_7BasicDB6Logger4KindESE_z@Base 1.2.31
 _ZN12kyotocabinet7ProtoDBINSt3tr113unordered_mapISsSsNS1_4hashISsEESt8equal_toISsESaISt4pairIKSsSsEEEELh16EE6statusEPSt3mapISsSsSt4lessISsESA_E@Base 1.2.31
 _ZN12kyotocabinet7ProtoDBINSt3tr113unordered_mapISsSsNS1_4hashISsEESt8equal_toISsESaISt4pairIKSsSsEEEELh16EE7TranLogC1ERKSD_@Base 1.2.31
 _ZN12kyotocabinet7ProtoDBINSt3tr113unordered_mapISsSsNS1_4hashISsEESt8equal_toISsESaISt4pairIKSsSsEEEELh16EE7TranLogC1ERS8_@Base 1.2.31
 _ZN12kyotocabinet7ProtoDBINSt3tr113unordered_mapISsSsNS1_4hashISsEESt8equal_toISsESaISt4pairIKSsSsEEEELh16EE7TranLogC1ERS8_SE_@Base 1.2.31
 _ZN12kyotocabinet7ProtoDBINSt3tr113unordered_mapISsSsNS1_4hashISsEESt8equal_toISsESaISt4pairIKSsSsEEEELh16EE7TranLogD1Ev@Base 1.2.31
 _ZN12kyotocabinet7ProtoDBINSt3tr113unordered_mapISsSsNS1_4hashISsEESt8equal_toISsESaISt4pairIKSsSsEEEELh16EE7iterateEPNS_2DB7VisitorEbPNS_7BasicDB15ProgressCheckerE@Base 1.2.31
 _ZN12kyotocabinet7ProtoDBINSt3tr113unordered_mapISsSsNS1_4hashISsEESt8equal_toISsESaISt4pairIKSsSsEEEELh16EE9set_errorEPKciSE_NS_7BasicDB5Error4CodeESE_@Base 1.2.31
 _ZN12kyotocabinet7ProtoDBINSt3tr113unordered_mapISsSsNS1_4hashISsEESt8equal_toISsESaISt4pairIKSsSsEEEELh16EEC1Ev@Base 1.2.31
 _ZN12kyotocabinet7ProtoDBINSt3tr113unordered_mapISsSsNS1_4hashISsEESt8equal_toISsESaISt4pairIKSsSsEEEELh16EED0Ev@Base 1.2.31
 _ZN12kyotocabinet7ProtoDBINSt3tr113unordered_mapISsSsNS1_4hashISsEESt8equal_toISsESaISt4pairIKSsSsEEEELh16EED1Ev@Base 1.2.31
 _ZN12kyotocabinet7ProtoDBISt3mapISsSsSt4lessISsESaISt4pairIKSsSsEEELh17EE11accept_bulkERKSt6vectorISsSaISsEEPNS_2DB7VisitorEb@Base 1.2.31
 _ZN12kyotocabinet7ProtoDBISt3mapISsSsSt4lessISsESaISt4pairIKSsSsEEELh17EE11synchronizeEbPNS_7BasicDB13FileProcessorEPNSA_15ProgressCheckerE@Base 1.2.31
 _ZN12kyotocabinet7ProtoDBISt3mapISsSsSt4lessISsESaISt4pairIKSsSsEEELh17EE11tune_loggerEPNS_7BasicDB6LoggerEj@Base 1.2.31
 _ZN12kyotocabinet7ProtoDBISt3mapISsSsSt4lessISsESaISt4pairIKSsSsEEELh17EE12trigger_metaENS_7BasicDB11MetaTrigger4KindEPKc@Base 1.2.31
 _ZN12kyotocabinet7ProtoDBISt3mapISsSsSt4lessISsESaISt4pairIKSsSsEEELh17EE15end_transactionEb@Base 1.2.31
 _ZN12kyotocabinet7ProtoDBISt3mapISsSsSt4lessISsESaISt4pairIKSsSsEEELh17EE17begin_transactionEb@Base 1.2.31
 _ZN12kyotocabinet7ProtoDBISt3mapISsSsSt4lessISsESaISt4pairIKSsSsEEELh17EE17tune_meta_triggerEPNS_7BasicDB11MetaTriggerE@Base 1.2.31
 _ZN12kyotocabinet7ProtoDBISt3mapISsSsSt4lessISsESaISt4pairIKSsSsEEELh17EE21begin_transaction_tryEb@Base 1.2.31
 _ZN12kyotocabinet7ProtoDBISt3mapISsSsSt4lessISsESaISt4pairIKSsSsEEELh17EE4openERS5_j@Base 1.2.31
 _ZN12kyotocabinet7ProtoDBISt3mapISsSsSt4lessISsESaISt4pairIKSsSsEEELh17EE4pathEv@Base 1.2.31
 _ZN12kyotocabinet7ProtoDBISt3mapISsSsSt4lessISsESaISt4pairIKSsSsEEELh17EE4sizeEv@Base 1.2.31
 _ZN12kyotocabinet7ProtoDBISt3mapISsSsSt4lessISsESaISt4pairIKSsSsEEELh17EE5clearEv@Base 1.2.31
 _ZN12kyotocabinet7ProtoDBISt3mapISsSsSt4lessISsESaISt4pairIKSsSsEEELh17EE5closeEv@Base 1.2.31
 _ZN12kyotocabinet7ProtoDBISt3mapISsSsSt4lessISsESaISt4pairIKSsSsEEELh17EE5countEv@Base 1.2.31
 _ZN12kyotocabinet7ProtoDBISt3mapISsSsSt4lessISsESaISt4pairIKSsSsEEELh17EE6Cursor2dbEv@Base 1.2.31
 _ZN12kyotocabinet7ProtoDBISt3mapISsSsSt4lessISsESaISt4pairIKSsSsEEELh17EE6Cursor4jumpEPKcm@Base 1.2.31
 _ZN12kyotocabinet7ProtoDBISt3mapISsSsSt4lessISsESaISt4pairIKSsSsEEELh17EE6Cursor4jumpERS5_@Base 1.2.31
 _ZN12kyotocabinet7ProtoDBISt3mapISsSsSt4lessISsESaISt4pairIKSsSsEEELh17EE6Cursor4jumpEv@Base 1.2.31
 _ZN12kyotocabinet7ProtoDBISt3mapISsSsSt4lessISsESaISt4pairIKSsSsEEELh17EE6Cursor4stepEv@Base 1.2.31
 _ZN12kyotocabinet7ProtoDBISt3mapISsSsSt4lessISsESaISt4pairIKSsSsEEELh17EE6Cursor6acceptEPNS_2DB7VisitorEbb@Base 1.2.31
 _ZN12kyotocabinet7ProtoDBISt3mapISsSsSt4lessISsESaISt4pairIKSsSsEEELh17EE6Cursor9jump_backEPKcm@Base 1.2.31
 _ZN12kyotocabinet7ProtoDBISt3mapISsSsSt4lessISsESaISt4pairIKSsSsEEELh17EE6Cursor9jump_backERS5_@Base 1.2.31
 _ZN12kyotocabinet7ProtoDBISt3mapISsSsSt4lessISsESaISt4pairIKSsSsEEELh17EE6Cursor9jump_backEv@Base 1.2.31
 _ZN12kyotocabinet7ProtoDBISt3mapISsSsSt4lessISsESaISt4pairIKSsSsEEELh17EE6Cursor9step_backEv@Base 1.2.31
 _ZN12kyotocabinet7ProtoDBISt3mapISsSsSt4lessISsESaISt4pairIKSsSsEEELh17EE6CursorC1EPS9_@Base 1.2.31
 _ZN12kyotocabinet7ProtoDBISt3mapISsSsSt4lessISsESaISt4pairIKSsSsEEELh17EE6CursorD0Ev@Base 1.2.31
 _ZN12kyotocabinet7ProtoDBISt3mapISsSsSt4lessISsESaISt4pairIKSsSsEEELh17EE6CursorD1Ev@Base 1.2.31
 _ZN12kyotocabinet7ProtoDBISt3mapISsSsSt4lessISsESaISt4pairIKSsSsEEELh17EE6acceptEPKcmPNS_2DB7VisitorEb@Base 1.2.31
 _ZN12kyotocabinet7ProtoDBISt3mapISsSsSt4lessISsESaISt4pairIKSsSsEEELh17EE6cursorEv@Base 1.2.31
 _ZN12kyotocabinet7ProtoDBISt3mapISsSsSt4lessISsESaISt4pairIKSsSsEEELh17EE6reportEPKciSB_NS_7BasicDB6Logger4KindESB_z@Base 1.2.31
 _ZN12kyotocabinet7ProtoDBISt3mapISsSsSt4lessISsESaISt4pairIKSsSsEEELh17EE6statusEPS8_@Base 1.2.31
 _ZN12kyotocabinet7ProtoDBISt3mapISsSsSt4lessISsESaISt4pairIKSsSsEEELh17EE7TranLogC1ERKSA_@Base 1.2.31
 _ZN12kyotocabinet7ProtoDBISt3mapISsSsSt4lessISsESaISt4pairIKSsSsEEELh17EE7TranLogC1ERS5_@Base 1.2.31
 _ZN12kyotocabinet7ProtoDBISt3mapISsSsSt4lessISsESaISt4pairIKSsSsEEELh17EE7TranLogC1ERS5_SB_@Base 1.2.31
 _ZN12kyotocabinet7ProtoDBISt3mapISsSsSt4lessISsESaISt4pairIKSsSsEEELh17EE7TranLogD1Ev@Base 1.2.31
 _ZN12kyotocabinet7ProtoDBISt3mapISsSsSt4lessISsESaISt4pairIKSsSsEEELh17EE7iterateEPNS_2DB7VisitorEbPNS_7BasicDB15ProgressCheckerE@Base 1.2.31
 _ZN12kyotocabinet7ProtoDBISt3mapISsSsSt4lessISsESaISt4pairIKSsSsEEELh17EE9set_errorEPKciSB_NS_7BasicDB5Error4CodeESB_@Base 1.2.31
 _ZN12kyotocabinet7ProtoDBISt3mapISsSsSt4lessISsESaISt4pairIKSsSsEEELh17EEC1Ev@Base 1.2.31
 _ZN12kyotocabinet7ProtoDBISt3mapISsSsSt4lessISsESaISt4pairIKSsSsEEELh17EED0Ev@Base 1.2.31
 _ZN12kyotocabinet7ProtoDBISt3mapISsSsSt4lessISsESaISt4pairIKSsSsEEELh17EED1Ev@Base 1.2.31
 _ZN12kyotocabinet7SYSNAMEE@Base 1.2.31
 _ZN12kyotocabinet7StashDB11accept_bulkERKSt6vectorISsSaISsEEPNS_2DB7VisitorEb@Base 1.2.31
 _ZN12kyotocabinet7StashDB11accept_implEPKcmPNS_2DB7VisitorEm@Base 1.2.31
 _ZN12kyotocabinet7StashDB11hash_recordEPKcm@Base 1.2.31
 _ZN12kyotocabinet7StashDB11synchronizeEbPNS_7BasicDB13FileProcessorEPNS1_15ProgressCheckerE@Base 1.2.31
 _ZN12kyotocabinet7StashDB11tune_loggerEPNS_7BasicDB6LoggerEj@Base 1.2.31
 _ZN12kyotocabinet7StashDB12apply_trlogsEv@Base 1.2.31
 _ZN12kyotocabinet7StashDB12trigger_metaENS_7BasicDB11MetaTrigger4KindEPKc@Base 1.2.31
 _ZN12kyotocabinet7StashDB12tune_bucketsEl@Base 1.2.31
 _ZN12kyotocabinet7StashDB14adjust_cursorsEPcS1_@Base 1.2.31
 _ZN12kyotocabinet7StashDB14escape_cursorsEPc@Base 1.2.31
 _ZN12kyotocabinet7StashDB15disable_cursorsEv@Base 1.2.31
 _ZN12kyotocabinet7StashDB15end_transactionEb@Base 1.2.31
 _ZN12kyotocabinet7StashDB17begin_transactionEb@Base 1.2.31
 _ZN12kyotocabinet7StashDB17tune_meta_triggerEPNS_7BasicDB11MetaTriggerE@Base 1.2.31
 _ZN12kyotocabinet7StashDB21begin_transaction_tryEb@Base 1.2.31
 _ZN12kyotocabinet7StashDB4openERKSsj@Base 1.2.31
 _ZN12kyotocabinet7StashDB4pathEv@Base 1.2.31
 _ZN12kyotocabinet7StashDB4sizeEv@Base 1.2.31
 _ZN12kyotocabinet7StashDB5clearEv@Base 1.2.31
 _ZN12kyotocabinet7StashDB5closeEv@Base 1.2.31
 _ZN12kyotocabinet7StashDB5countEv@Base 1.2.31
 _ZN12kyotocabinet7StashDB6Cursor2dbEv@Base 1.2.31
 _ZN12kyotocabinet7StashDB6Cursor4jumpEPKcm@Base 1.2.31
 _ZN12kyotocabinet7StashDB6Cursor4jumpERKSs@Base 1.2.31
 _ZN12kyotocabinet7StashDB6Cursor4jumpEv@Base 1.2.31
 _ZN12kyotocabinet7StashDB6Cursor4stepEv@Base 1.2.31
 _ZN12kyotocabinet7StashDB6Cursor6acceptEPNS_2DB7VisitorEbb@Base 1.2.31
 _ZN12kyotocabinet7StashDB6Cursor9jump_backEPKcm@Base 1.2.31
 _ZN12kyotocabinet7StashDB6Cursor9jump_backERKSs@Base 1.2.31
 _ZN12kyotocabinet7StashDB6Cursor9jump_backEv@Base 1.2.31
 _ZN12kyotocabinet7StashDB6Cursor9step_backEv@Base 1.2.31
 _ZN12kyotocabinet7StashDB6Cursor9step_implEv@Base 1.2.31
 _ZN12kyotocabinet7StashDB6CursorC1EPS0_@Base 1.2.31
 _ZN12kyotocabinet7StashDB6CursorD0Ev@Base 1.2.31
 _ZN12kyotocabinet7StashDB6CursorD1Ev@Base 1.2.31
 _ZN12kyotocabinet7StashDB6Record11deserializeEPKc@Base 1.2.31
 _ZN12kyotocabinet7StashDB6Record9overwriteEPcPKcm@Base 1.2.31
 _ZN12kyotocabinet7StashDB6Record9serializeEv@Base 1.2.31
 _ZN12kyotocabinet7StashDB6RecordC1EPKc@Base 1.2.31
 _ZN12kyotocabinet7StashDB6RecordC1EPcPKcmS4_m@Base 1.2.31
 _ZN12kyotocabinet7StashDB6Setter10visit_fullEPKcmS3_mPm@Base 1.2.31
 _ZN12kyotocabinet7StashDB6Setter11visit_emptyEPKcmPm@Base 1.2.31
 _ZN12kyotocabinet7StashDB6SetterC1EPKcm@Base 1.2.31
 _ZN12kyotocabinet7StashDB6SetterD0Ev@Base 1.2.31
 _ZN12kyotocabinet7StashDB6SetterD1Ev@Base 1.2.31
 _ZN12kyotocabinet7StashDB6acceptEPKcmPNS_2DB7VisitorEb@Base 1.2.31
 _ZN12kyotocabinet7StashDB6cursorEv@Base 1.2.31
 _ZN12kyotocabinet7StashDB6reportEPKciS2_NS_7BasicDB6Logger4KindES2_z@Base 1.2.31
 _ZN12kyotocabinet7StashDB6statusEPSt3mapISsSsSt4lessISsESaISt4pairIKSsSsEEE@Base 1.2.31
 _ZN12kyotocabinet7StashDB7Remover10visit_fullEPKcmS3_mPm@Base 1.2.31
 _ZN12kyotocabinet7StashDB7RemoverC1Ev@Base 1.2.31
 _ZN12kyotocabinet7StashDB7RemoverD0Ev@Base 1.2.31
 _ZN12kyotocabinet7StashDB7RemoverD1Ev@Base 1.2.31
 _ZN12kyotocabinet7StashDB7TranLogC1EPKcm@Base 1.2.31
 _ZN12kyotocabinet7StashDB7TranLogC1EPKcmS3_m@Base 1.2.31
 _ZN12kyotocabinet7StashDB7TranLogC1ERKS1_@Base 1.2.31
 _ZN12kyotocabinet7StashDB7TranLogD1Ev@Base 1.2.31
 _ZN12kyotocabinet7StashDB7iterateEPNS_2DB7VisitorEbPNS_7BasicDB15ProgressCheckerE@Base 1.2.31
 _ZN12kyotocabinet7StashDB8Repeater10visit_fullEPKcmS3_mPm@Base 1.2.31
 _ZN12kyotocabinet7StashDB8RepeaterC1EPKcm@Base 1.2.31
 _ZN12kyotocabinet7StashDB8RepeaterD0Ev@Base 1.2.31
 _ZN12kyotocabinet7StashDB8RepeaterD1Ev@Base 1.2.31
 _ZN12kyotocabinet7StashDB9set_errorEPKciS2_NS_7BasicDB5Error4CodeES2_@Base 1.2.31
 _ZN12kyotocabinet7StashDB9size_implEv@Base 1.2.31
 _ZN12kyotocabinet7StashDBC1Ev@Base 1.2.31
 _ZN12kyotocabinet7StashDBD0Ev@Base 1.2.31
 _ZN12kyotocabinet7StashDBD1Ev@Base 1.2.31
 _ZN12kyotocabinet7VERSIONE@Base 1.2.31
 _ZN12kyotocabinet7hashfnvEPKvm@Base 1.2.31
 _ZN12kyotocabinet7mapfreeEPv@Base 1.2.31
 _ZN12kyotocabinet7xmallocEm@Base 1.2.31
 _ZN12kyotocabinet8FEATURESE@Base 1.2.31
 _ZN12kyotocabinet8FileCoreC1Ev@Base 1.2.31
 _ZN12kyotocabinet8FileCoreD1Ev@Base 1.2.31
 _ZN12kyotocabinet8PAGESIZEE@Base 1.2.31
 _ZN12kyotocabinet8SpinLock4lockEv@Base 1.2.31
 _ZN12kyotocabinet8SpinLock6unlockEv@Base 1.2.31
 _ZN12kyotocabinet8SpinLock8lock_tryEv@Base 1.2.31
 _ZN12kyotocabinet8SpinLockC1Ev@Base 1.2.31
 _ZN12kyotocabinet8SpinLockC2Ev@Base 1.2.31
 _ZN12kyotocabinet8SpinLockD1Ev@Base 1.2.31
 _ZN12kyotocabinet8SpinLockD2Ev@Base 1.2.31
 _ZN12kyotocabinet8hashpathEPKvmPc@Base 1.2.31
 _ZN12kyotocabinet8mapallocEm@Base 1.2.31
 _ZN12kyotocabinet8strsplitERKSscPSt6vectorISsSaISsEE@Base 1.2.31
 _ZN12kyotocabinet8xreallocEPvm@Base 1.2.31
 _ZN12kyotocabinet9CLOCKTICKE@Base 1.2.31
 _ZN12kyotocabinet9DirStream4openERKSs@Base 1.2.31
 _ZN12kyotocabinet9DirStream4readEPSs@Base 1.2.31
 _ZN12kyotocabinet9DirStream5closeEv@Base 1.2.31
 _ZN12kyotocabinet9DirStreamC1Ev@Base 1.2.31
 _ZN12kyotocabinet9DirStreamC2Ev@Base 1.2.31
 _ZN12kyotocabinet9DirStreamD1Ev@Base 1.2.31
 _ZN12kyotocabinet9DirStreamD2Ev@Base 1.2.31
 _ZN12kyotocabinet9arccipherEPKvmS1_mPv@Base 1.2.31
 _ZN12kyotocabinet9hexencodeEPKvm@Base 1.2.31
 _ZN12kyotocabinet9strprintfEPKcz@Base 1.2.31
 _ZN12kyotocabinet9strprintfEPSsPKcz@Base 1.2.31
 _ZN9__gnu_cxx13new_allocatorIN12kyotocabinet10WALMessageEE10deallocateEPS2_m@Base 1.2.31
 _ZN9__gnu_cxx13new_allocatorIN12kyotocabinet10WALMessageEE7destroyEPS2_@Base 1.2.31
 _ZN9__gnu_cxx13new_allocatorIN12kyotocabinet10WALMessageEE8allocateEmPKv@Base 1.2.31
 _ZN9__gnu_cxx13new_allocatorIN12kyotocabinet10WALMessageEE9constructEPS2_RKS2_@Base 1.2.31
 _ZN9__gnu_cxx13new_allocatorIN12kyotocabinet10WALMessageEEC2Ev@Base 1.2.31
 _ZN9__gnu_cxx13new_allocatorIN12kyotocabinet10WALMessageEED2Ev@Base 1.2.31
 _ZN9__gnu_cxx13new_allocatorIN12kyotocabinet6HashDB9FreeBlockEE7destroyEPS3_@Base 1.2.31
 _ZN9__gnu_cxx13new_allocatorIN12kyotocabinet6HashDB9FreeBlockEE9constructEPS3_RKS3_@Base 1.2.31
 _ZN9__gnu_cxx13new_allocatorIN12kyotocabinet6HashDB9FreeBlockEEC2Ev@Base 1.2.31
 _ZN9__gnu_cxx13new_allocatorIN12kyotocabinet6HashDB9FreeBlockEED2Ev@Base 1.2.31
 _ZN9__gnu_cxx13new_allocatorIN12kyotocabinet6PolyDB9MergeLineEE10deallocateEPS3_m@Base 1.2.31
 _ZN9__gnu_cxx13new_allocatorIN12kyotocabinet6PolyDB9MergeLineEE7destroyEPS3_@Base 1.2.31
 _ZN9__gnu_cxx13new_allocatorIN12kyotocabinet6PolyDB9MergeLineEE8allocateEmPKv@Base 1.2.31
 _ZN9__gnu_cxx13new_allocatorIN12kyotocabinet6PolyDB9MergeLineEE9constructEPS3_RKS3_@Base 1.2.31
 _ZN9__gnu_cxx13new_allocatorIN12kyotocabinet6PolyDB9MergeLineEEC2ERKS4_@Base 1.2.31
 _ZN9__gnu_cxx13new_allocatorIN12kyotocabinet6PolyDB9MergeLineEEC2Ev@Base 1.2.31
 _ZN9__gnu_cxx13new_allocatorIN12kyotocabinet6PolyDB9MergeLineEED2Ev@Base 1.2.31
 _ZN9__gnu_cxx13new_allocatorIN12kyotocabinet7CacheDB7TranLogEE7destroyEPS3_@Base 1.2.31
 _ZN9__gnu_cxx13new_allocatorIN12kyotocabinet7CacheDB7TranLogEE9constructEPS3_RKS3_@Base 1.2.31
 _ZN9__gnu_cxx13new_allocatorIN12kyotocabinet7CacheDB7TranLogEEC2Ev@Base 1.2.31
 _ZN9__gnu_cxx13new_allocatorIN12kyotocabinet7CacheDB7TranLogEED2Ev@Base 1.2.31
 _ZN9__gnu_cxx13new_allocatorIN12kyotocabinet7ProtoDBINSt3tr113unordered_mapISsSsNS3_4hashISsEESt8equal_toISsESaISt4pairIKSsSsEEEELh16EE7TranLogEE7destroyEPSF_@Base 1.2.31
 _ZN9__gnu_cxx13new_allocatorIN12kyotocabinet7ProtoDBINSt3tr113unordered_mapISsSsNS3_4hashISsEESt8equal_toISsESaISt4pairIKSsSsEEEELh16EE7TranLogEE9constructEPSF_RKSF_@Base 1.2.31
 _ZN9__gnu_cxx13new_allocatorIN12kyotocabinet7ProtoDBINSt3tr113unordered_mapISsSsNS3_4hashISsEESt8equal_toISsESaISt4pairIKSsSsEEEELh16EE7TranLogEEC2Ev@Base 1.2.31
 _ZN9__gnu_cxx13new_allocatorIN12kyotocabinet7ProtoDBINSt3tr113unordered_mapISsSsNS3_4hashISsEESt8equal_toISsESaISt4pairIKSsSsEEEELh16EE7TranLogEED2Ev@Base 1.2.31
 _ZN9__gnu_cxx13new_allocatorIN12kyotocabinet7ProtoDBISt3mapISsSsSt4lessISsESaISt4pairIKSsSsEEELh17EE7TranLogEE7destroyEPSC_@Base 1.2.31
 _ZN9__gnu_cxx13new_allocatorIN12kyotocabinet7ProtoDBISt3mapISsSsSt4lessISsESaISt4pairIKSsSsEEELh17EE7TranLogEE9constructEPSC_RKSC_@Base 1.2.31
 _ZN9__gnu_cxx13new_allocatorIN12kyotocabinet7ProtoDBISt3mapISsSsSt4lessISsESaISt4pairIKSsSsEEELh17EE7TranLogEEC2Ev@Base 1.2.31
 _ZN9__gnu_cxx13new_allocatorIN12kyotocabinet7ProtoDBISt3mapISsSsSt4lessISsESaISt4pairIKSsSsEEELh17EE7TranLogEED2Ev@Base 1.2.31
 _ZN9__gnu_cxx13new_allocatorIN12kyotocabinet7StashDB7TranLogEE7destroyEPS3_@Base 1.2.31
 _ZN9__gnu_cxx13new_allocatorIN12kyotocabinet7StashDB7TranLogEE9constructEPS3_RKS3_@Base 1.2.31
 _ZN9__gnu_cxx13new_allocatorIN12kyotocabinet7StashDB7TranLogEEC2Ev@Base 1.2.31
 _ZN9__gnu_cxx13new_allocatorIN12kyotocabinet7StashDB7TranLogEED2Ev@Base 1.2.31
 _ZN9__gnu_cxx13new_allocatorINSt3tr18__detail10_Hash_nodeISt4pairIKSsSsELb0EEEE10deallocateEPS7_m@Base 1.2.31
 _ZN9__gnu_cxx13new_allocatorINSt3tr18__detail10_Hash_nodeISt4pairIKSsSsELb0EEEE8allocateEmPKv@Base 1.2.31
 _ZN9__gnu_cxx13new_allocatorINSt3tr18__detail10_Hash_nodeISt4pairIKSsSsELb0EEEEC2Ev@Base 1.2.31
 _ZN9__gnu_cxx13new_allocatorINSt3tr18__detail10_Hash_nodeISt4pairIKSsSsELb0EEEED2Ev@Base 1.2.31
 _ZN9__gnu_cxx13new_allocatorIPN12kyotocabinet5DirDB6CursorEE7destroyEPS4_@Base 1.2.31
 _ZN9__gnu_cxx13new_allocatorIPN12kyotocabinet5DirDB6CursorEE9constructEPS4_RKS4_@Base 1.2.31
 _ZN9__gnu_cxx13new_allocatorIPN12kyotocabinet5DirDB6CursorEEC2Ev@Base 1.2.31
 _ZN9__gnu_cxx13new_allocatorIPN12kyotocabinet5DirDB6CursorEED2Ev@Base 1.2.31
 _ZN9__gnu_cxx13new_allocatorIPN12kyotocabinet6HashDB6CursorEE7destroyEPS4_@Base 1.2.31
 _ZN9__gnu_cxx13new_allocatorIPN12kyotocabinet6HashDB6CursorEE9constructEPS4_RKS4_@Base 1.2.31
 _ZN9__gnu_cxx13new_allocatorIPN12kyotocabinet6HashDB6CursorEEC2Ev@Base 1.2.31
 _ZN9__gnu_cxx13new_allocatorIPN12kyotocabinet6HashDB6CursorEED2Ev@Base 1.2.31
 _ZN9__gnu_cxx13new_allocatorIPN12kyotocabinet7CacheDB6CursorEE7destroyEPS4_@Base 1.2.31
 _ZN9__gnu_cxx13new_allocatorIPN12kyotocabinet7CacheDB6CursorEE9constructEPS4_RKS4_@Base 1.2.31
 _ZN9__gnu_cxx13new_allocatorIPN12kyotocabinet7CacheDB6CursorEEC2Ev@Base 1.2.31
 _ZN9__gnu_cxx13new_allocatorIPN12kyotocabinet7CacheDB6CursorEED2Ev@Base 1.2.31
 _ZN9__gnu_cxx13new_allocatorIPN12kyotocabinet7PlantDBINS1_5DirDBELh65EE4LinkEE10deallocateEPS6_m@Base 1.2.31
 _ZN9__gnu_cxx13new_allocatorIPN12kyotocabinet7PlantDBINS1_5DirDBELh65EE4LinkEE7destroyEPS6_@Base 1.2.31
 _ZN9__gnu_cxx13new_allocatorIPN12kyotocabinet7PlantDBINS1_5DirDBELh65EE4LinkEE8allocateEmPKv@Base 1.2.31
 _ZN9__gnu_cxx13new_allocatorIPN12kyotocabinet7PlantDBINS1_5DirDBELh65EE4LinkEE9constructEPS6_RKS6_@Base 1.2.31
 _ZN9__gnu_cxx13new_allocatorIPN12kyotocabinet7PlantDBINS1_5DirDBELh65EE4LinkEEC2Ev@Base 1.2.31
 _ZN9__gnu_cxx13new_allocatorIPN12kyotocabinet7PlantDBINS1_5DirDBELh65EE4LinkEED2Ev@Base 1.2.31
 _ZN9__gnu_cxx13new_allocatorIPN12kyotocabinet7PlantDBINS1_5DirDBELh65EE6CursorEE7destroyEPS6_@Base 1.2.31
 _ZN9__gnu_cxx13new_allocatorIPN12kyotocabinet7PlantDBINS1_5DirDBELh65EE6CursorEE9constructEPS6_RKS6_@Base 1.2.31
 _ZN9__gnu_cxx13new_allocatorIPN12kyotocabinet7PlantDBINS1_5DirDBELh65EE6CursorEEC2Ev@Base 1.2.31
 _ZN9__gnu_cxx13new_allocatorIPN12kyotocabinet7PlantDBINS1_5DirDBELh65EE6CursorEED2Ev@Base 1.2.31
 _ZN9__gnu_cxx13new_allocatorIPN12kyotocabinet7PlantDBINS1_5DirDBELh65EE6RecordEE10deallocateEPS6_m@Base 1.2.31
 _ZN9__gnu_cxx13new_allocatorIPN12kyotocabinet7PlantDBINS1_5DirDBELh65EE6RecordEE7destroyEPS6_@Base 1.2.31
 _ZN9__gnu_cxx13new_allocatorIPN12kyotocabinet7PlantDBINS1_5DirDBELh65EE6RecordEE8allocateEmPKv@Base 1.2.31
 _ZN9__gnu_cxx13new_allocatorIPN12kyotocabinet7PlantDBINS1_5DirDBELh65EE6RecordEE9constructEPS6_RKS6_@Base 1.2.31
 _ZN9__gnu_cxx13new_allocatorIPN12kyotocabinet7PlantDBINS1_5DirDBELh65EE6RecordEEC2Ev@Base 1.2.31
 _ZN9__gnu_cxx13new_allocatorIPN12kyotocabinet7PlantDBINS1_5DirDBELh65EE6RecordEED2Ev@Base 1.2.31
 _ZN9__gnu_cxx13new_allocatorIPN12kyotocabinet7PlantDBINS1_6HashDBELh49EE4LinkEE10deallocateEPS6_m@Base 1.2.31
 _ZN9__gnu_cxx13new_allocatorIPN12kyotocabinet7PlantDBINS1_6HashDBELh49EE4LinkEE7destroyEPS6_@Base 1.2.31
 _ZN9__gnu_cxx13new_allocatorIPN12kyotocabinet7PlantDBINS1_6HashDBELh49EE4LinkEE8allocateEmPKv@Base 1.2.31
 _ZN9__gnu_cxx13new_allocatorIPN12kyotocabinet7PlantDBINS1_6HashDBELh49EE4LinkEE9constructEPS6_RKS6_@Base 1.2.31
 _ZN9__gnu_cxx13new_allocatorIPN12kyotocabinet7PlantDBINS1_6HashDBELh49EE4LinkEEC2Ev@Base 1.2.31
 _ZN9__gnu_cxx13new_allocatorIPN12kyotocabinet7PlantDBINS1_6HashDBELh49EE4LinkEED2Ev@Base 1.2.31
 _ZN9__gnu_cxx13new_allocatorIPN12kyotocabinet7PlantDBINS1_6HashDBELh49EE6CursorEE7destroyEPS6_@Base 1.2.31
 _ZN9__gnu_cxx13new_allocatorIPN12kyotocabinet7PlantDBINS1_6HashDBELh49EE6CursorEE9constructEPS6_RKS6_@Base 1.2.31
 _ZN9__gnu_cxx13new_allocatorIPN12kyotocabinet7PlantDBINS1_6HashDBELh49EE6CursorEEC2Ev@Base 1.2.31
 _ZN9__gnu_cxx13new_allocatorIPN12kyotocabinet7PlantDBINS1_6HashDBELh49EE6CursorEED2Ev@Base 1.2.31
 _ZN9__gnu_cxx13new_allocatorIPN12kyotocabinet7PlantDBINS1_6HashDBELh49EE6RecordEE10deallocateEPS6_m@Base 1.2.31
 _ZN9__gnu_cxx13new_allocatorIPN12kyotocabinet7PlantDBINS1_6HashDBELh49EE6RecordEE7destroyEPS6_@Base 1.2.31
 _ZN9__gnu_cxx13new_allocatorIPN12kyotocabinet7PlantDBINS1_6HashDBELh49EE6RecordEE8allocateEmPKv@Base 1.2.31
 _ZN9__gnu_cxx13new_allocatorIPN12kyotocabinet7PlantDBINS1_6HashDBELh49EE6RecordEE9constructEPS6_RKS6_@Base 1.2.31
 _ZN9__gnu_cxx13new_allocatorIPN12kyotocabinet7PlantDBINS1_6HashDBELh49EE6RecordEEC2Ev@Base 1.2.31
 _ZN9__gnu_cxx13new_allocatorIPN12kyotocabinet7PlantDBINS1_6HashDBELh49EE6RecordEED2Ev@Base 1.2.31
 _ZN9__gnu_cxx13new_allocatorIPN12kyotocabinet7PlantDBINS1_7CacheDBELh33EE4LinkEE10deallocateEPS6_m@Base 1.2.31
 _ZN9__gnu_cxx13new_allocatorIPN12kyotocabinet7PlantDBINS1_7CacheDBELh33EE4LinkEE7destroyEPS6_@Base 1.2.31
 _ZN9__gnu_cxx13new_allocatorIPN12kyotocabinet7PlantDBINS1_7CacheDBELh33EE4LinkEE8allocateEmPKv@Base 1.2.31
 _ZN9__gnu_cxx13new_allocatorIPN12kyotocabinet7PlantDBINS1_7CacheDBELh33EE4LinkEE9constructEPS6_RKS6_@Base 1.2.31
 _ZN9__gnu_cxx13new_allocatorIPN12kyotocabinet7PlantDBINS1_7CacheDBELh33EE4LinkEEC2Ev@Base 1.2.31
 _ZN9__gnu_cxx13new_allocatorIPN12kyotocabinet7PlantDBINS1_7CacheDBELh33EE4LinkEED2Ev@Base 1.2.31
 _ZN9__gnu_cxx13new_allocatorIPN12kyotocabinet7PlantDBINS1_7CacheDBELh33EE6CursorEE7destroyEPS6_@Base 1.2.31
 _ZN9__gnu_cxx13new_allocatorIPN12kyotocabinet7PlantDBINS1_7CacheDBELh33EE6CursorEE9constructEPS6_RKS6_@Base 1.2.31
 _ZN9__gnu_cxx13new_allocatorIPN12kyotocabinet7PlantDBINS1_7CacheDBELh33EE6CursorEEC2Ev@Base 1.2.31
 _ZN9__gnu_cxx13new_allocatorIPN12kyotocabinet7PlantDBINS1_7CacheDBELh33EE6CursorEED2Ev@Base 1.2.31
 _ZN9__gnu_cxx13new_allocatorIPN12kyotocabinet7PlantDBINS1_7CacheDBELh33EE6RecordEE10deallocateEPS6_m@Base 1.2.31
 _ZN9__gnu_cxx13new_allocatorIPN12kyotocabinet7PlantDBINS1_7CacheDBELh33EE6RecordEE7destroyEPS6_@Base 1.2.31
 _ZN9__gnu_cxx13new_allocatorIPN12kyotocabinet7PlantDBINS1_7CacheDBELh33EE6RecordEE8allocateEmPKv@Base 1.2.31
 _ZN9__gnu_cxx13new_allocatorIPN12kyotocabinet7PlantDBINS1_7CacheDBELh33EE6RecordEE9constructEPS6_RKS6_@Base 1.2.31
 _ZN9__gnu_cxx13new_allocatorIPN12kyotocabinet7PlantDBINS1_7CacheDBELh33EE6RecordEEC2Ev@Base 1.2.31
 _ZN9__gnu_cxx13new_allocatorIPN12kyotocabinet7PlantDBINS1_7CacheDBELh33EE6RecordEED2Ev@Base 1.2.31
 _ZN9__gnu_cxx13new_allocatorIPN12kyotocabinet7ProtoDBINSt3tr113unordered_mapISsSsNS3_4hashISsEESt8equal_toISsESaISt4pairIKSsSsEEEELh16EE6CursorEE7destroyEPSG_@Base 1.2.31
 _ZN9__gnu_cxx13new_allocatorIPN12kyotocabinet7ProtoDBINSt3tr113unordered_mapISsSsNS3_4hashISsEESt8equal_toISsESaISt4pairIKSsSsEEEELh16EE6CursorEE9constructEPSG_RKSG_@Base 1.2.31
 _ZN9__gnu_cxx13new_allocatorIPN12kyotocabinet7ProtoDBINSt3tr113unordered_mapISsSsNS3_4hashISsEESt8equal_toISsESaISt4pairIKSsSsEEEELh16EE6CursorEEC2Ev@Base 1.2.31
 _ZN9__gnu_cxx13new_allocatorIPN12kyotocabinet7ProtoDBINSt3tr113unordered_mapISsSsNS3_4hashISsEESt8equal_toISsESaISt4pairIKSsSsEEEELh16EE6CursorEED2Ev@Base 1.2.31
 _ZN9__gnu_cxx13new_allocatorIPN12kyotocabinet7ProtoDBISt3mapISsSsSt4lessISsESaISt4pairIKSsSsEEELh17EE6CursorEE7destroyEPSD_@Base 1.2.31
 _ZN9__gnu_cxx13new_allocatorIPN12kyotocabinet7ProtoDBISt3mapISsSsSt4lessISsESaISt4pairIKSsSsEEELh17EE6CursorEE9constructEPSD_RKSD_@Base 1.2.31
 _ZN9__gnu_cxx13new_allocatorIPN12kyotocabinet7ProtoDBISt3mapISsSsSt4lessISsESaISt4pairIKSsSsEEELh17EE6CursorEEC2Ev@Base 1.2.31
 _ZN9__gnu_cxx13new_allocatorIPN12kyotocabinet7ProtoDBISt3mapISsSsSt4lessISsESaISt4pairIKSsSsEEELh17EE6CursorEED2Ev@Base 1.2.31
 _ZN9__gnu_cxx13new_allocatorIPN12kyotocabinet7StashDB6CursorEE7destroyEPS4_@Base 1.2.31
 _ZN9__gnu_cxx13new_allocatorIPN12kyotocabinet7StashDB6CursorEE9constructEPS4_RKS4_@Base 1.2.31
 _ZN9__gnu_cxx13new_allocatorIPN12kyotocabinet7StashDB6CursorEEC2Ev@Base 1.2.31
 _ZN9__gnu_cxx13new_allocatorIPN12kyotocabinet7StashDB6CursorEED2Ev@Base 1.2.31
 _ZN9__gnu_cxx13new_allocatorIPNSt3tr18__detail10_Hash_nodeISt4pairIKSsSsELb0EEEE10deallocateEPS8_m@Base 1.2.31
 _ZN9__gnu_cxx13new_allocatorIPNSt3tr18__detail10_Hash_nodeISt4pairIKSsSsELb0EEEE8allocateEmPKv@Base 1.2.31
 _ZN9__gnu_cxx13new_allocatorIPNSt3tr18__detail10_Hash_nodeISt4pairIKSsSsELb0EEEEC2Ev@Base 1.2.31
 _ZN9__gnu_cxx13new_allocatorIPNSt3tr18__detail10_Hash_nodeISt4pairIKSsSsELb0EEEED2Ev@Base 1.2.31
 _ZN9__gnu_cxx13new_allocatorISsE10deallocateEPSsm@Base 1.2.31
 _ZN9__gnu_cxx13new_allocatorISsE7destroyEPSs@Base 1.2.31
 _ZN9__gnu_cxx13new_allocatorISsE8allocateEmPKv@Base 1.2.31
 _ZN9__gnu_cxx13new_allocatorISsE9constructEPSsRKSs@Base 1.2.31
 _ZN9__gnu_cxx13new_allocatorISsEC2Ev@Base 1.2.31
 _ZN9__gnu_cxx13new_allocatorISsED2Ev@Base 1.2.31
 _ZN9__gnu_cxx13new_allocatorISt10_List_nodeIN12kyotocabinet7CacheDB7TranLogEEE10deallocateEPS5_m@Base 1.2.31
 _ZN9__gnu_cxx13new_allocatorISt10_List_nodeIN12kyotocabinet7CacheDB7TranLogEEE8allocateEmPKv@Base 1.2.31
 _ZN9__gnu_cxx13new_allocatorISt10_List_nodeIN12kyotocabinet7CacheDB7TranLogEEEC2Ev@Base 1.2.31
 _ZN9__gnu_cxx13new_allocatorISt10_List_nodeIN12kyotocabinet7CacheDB7TranLogEEED2Ev@Base 1.2.31
 _ZN9__gnu_cxx13new_allocatorISt10_List_nodeIN12kyotocabinet7ProtoDBINSt3tr113unordered_mapISsSsNS4_4hashISsEESt8equal_toISsESaISt4pairIKSsSsEEEELh16EE7TranLogEEE10deallocateEPSH_m@Base 1.2.31
 _ZN9__gnu_cxx13new_allocatorISt10_List_nodeIN12kyotocabinet7ProtoDBINSt3tr113unordered_mapISsSsNS4_4hashISsEESt8equal_toISsESaISt4pairIKSsSsEEEELh16EE7TranLogEEE8allocateEmPKv@Base 1.2.31
 _ZN9__gnu_cxx13new_allocatorISt10_List_nodeIN12kyotocabinet7ProtoDBINSt3tr113unordered_mapISsSsNS4_4hashISsEESt8equal_toISsESaISt4pairIKSsSsEEEELh16EE7TranLogEEEC2Ev@Base 1.2.31
 _ZN9__gnu_cxx13new_allocatorISt10_List_nodeIN12kyotocabinet7ProtoDBINSt3tr113unordered_mapISsSsNS4_4hashISsEESt8equal_toISsESaISt4pairIKSsSsEEEELh16EE7TranLogEEED2Ev@Base 1.2.31
 _ZN9__gnu_cxx13new_allocatorISt10_List_nodeIN12kyotocabinet7ProtoDBISt3mapISsSsSt4lessISsESaISt4pairIKSsSsEEELh17EE7TranLogEEE10deallocateEPSE_m@Base 1.2.31
 _ZN9__gnu_cxx13new_allocatorISt10_List_nodeIN12kyotocabinet7ProtoDBISt3mapISsSsSt4lessISsESaISt4pairIKSsSsEEELh17EE7TranLogEEE8allocateEmPKv@Base 1.2.31
 _ZN9__gnu_cxx13new_allocatorISt10_List_nodeIN12kyotocabinet7ProtoDBISt3mapISsSsSt4lessISsESaISt4pairIKSsSsEEELh17EE7TranLogEEEC2Ev@Base 1.2.31
 _ZN9__gnu_cxx13new_allocatorISt10_List_nodeIN12kyotocabinet7ProtoDBISt3mapISsSsSt4lessISsESaISt4pairIKSsSsEEELh17EE7TranLogEEED2Ev@Base 1.2.31
 _ZN9__gnu_cxx13new_allocatorISt10_List_nodeIN12kyotocabinet7StashDB7TranLogEEE10deallocateEPS5_m@Base 1.2.31
 _ZN9__gnu_cxx13new_allocatorISt10_List_nodeIN12kyotocabinet7StashDB7TranLogEEE8allocateEmPKv@Base 1.2.31
 _ZN9__gnu_cxx13new_allocatorISt10_List_nodeIN12kyotocabinet7StashDB7TranLogEEEC2Ev@Base 1.2.31
 _ZN9__gnu_cxx13new_allocatorISt10_List_nodeIN12kyotocabinet7StashDB7TranLogEEED2Ev@Base 1.2.31
 _ZN9__gnu_cxx13new_allocatorISt10_List_nodeIPN12kyotocabinet5DirDB6CursorEEE10deallocateEPS6_m@Base 1.2.31
 _ZN9__gnu_cxx13new_allocatorISt10_List_nodeIPN12kyotocabinet5DirDB6CursorEEE8allocateEmPKv@Base 1.2.31
 _ZN9__gnu_cxx13new_allocatorISt10_List_nodeIPN12kyotocabinet5DirDB6CursorEEEC2Ev@Base 1.2.31
 _ZN9__gnu_cxx13new_allocatorISt10_List_nodeIPN12kyotocabinet5DirDB6CursorEEED2Ev@Base 1.2.31
 _ZN9__gnu_cxx13new_allocatorISt10_List_nodeIPN12kyotocabinet6HashDB6CursorEEE10deallocateEPS6_m@Base 1.2.31
 _ZN9__gnu_cxx13new_allocatorISt10_List_nodeIPN12kyotocabinet6HashDB6CursorEEE8allocateEmPKv@Base 1.2.31
 _ZN9__gnu_cxx13new_allocatorISt10_List_nodeIPN12kyotocabinet6HashDB6CursorEEEC2Ev@Base 1.2.31
 _ZN9__gnu_cxx13new_allocatorISt10_List_nodeIPN12kyotocabinet6HashDB6CursorEEED2Ev@Base 1.2.31
 _ZN9__gnu_cxx13new_allocatorISt10_List_nodeIPN12kyotocabinet7CacheDB6CursorEEE10deallocateEPS6_m@Base 1.2.31
 _ZN9__gnu_cxx13new_allocatorISt10_List_nodeIPN12kyotocabinet7CacheDB6CursorEEE8allocateEmPKv@Base 1.2.31
 _ZN9__gnu_cxx13new_allocatorISt10_List_nodeIPN12kyotocabinet7CacheDB6CursorEEEC2Ev@Base 1.2.31
 _ZN9__gnu_cxx13new_allocatorISt10_List_nodeIPN12kyotocabinet7CacheDB6CursorEEED2Ev@Base 1.2.31
 _ZN9__gnu_cxx13new_allocatorISt10_List_nodeIPN12kyotocabinet7PlantDBINS2_5DirDBELh65EE6CursorEEE10deallocateEPS8_m@Base 1.2.31
 _ZN9__gnu_cxx13new_allocatorISt10_List_nodeIPN12kyotocabinet7PlantDBINS2_5DirDBELh65EE6CursorEEE8allocateEmPKv@Base 1.2.31
 _ZN9__gnu_cxx13new_allocatorISt10_List_nodeIPN12kyotocabinet7PlantDBINS2_5DirDBELh65EE6CursorEEEC2Ev@Base 1.2.31
 _ZN9__gnu_cxx13new_allocatorISt10_List_nodeIPN12kyotocabinet7PlantDBINS2_5DirDBELh65EE6CursorEEED2Ev@Base 1.2.31
 _ZN9__gnu_cxx13new_allocatorISt10_List_nodeIPN12kyotocabinet7PlantDBINS2_6HashDBELh49EE6CursorEEE10deallocateEPS8_m@Base 1.2.31
 _ZN9__gnu_cxx13new_allocatorISt10_List_nodeIPN12kyotocabinet7PlantDBINS2_6HashDBELh49EE6CursorEEE8allocateEmPKv@Base 1.2.31
 _ZN9__gnu_cxx13new_allocatorISt10_List_nodeIPN12kyotocabinet7PlantDBINS2_6HashDBELh49EE6CursorEEEC2Ev@Base 1.2.31
 _ZN9__gnu_cxx13new_allocatorISt10_List_nodeIPN12kyotocabinet7PlantDBINS2_6HashDBELh49EE6CursorEEED2Ev@Base 1.2.31
 _ZN9__gnu_cxx13new_allocatorISt10_List_nodeIPN12kyotocabinet7PlantDBINS2_7CacheDBELh33EE6CursorEEE10deallocateEPS8_m@Base 1.2.31
 _ZN9__gnu_cxx13new_allocatorISt10_List_nodeIPN12kyotocabinet7PlantDBINS2_7CacheDBELh33EE6CursorEEE8allocateEmPKv@Base 1.2.31
 _ZN9__gnu_cxx13new_allocatorISt10_List_nodeIPN12kyotocabinet7PlantDBINS2_7CacheDBELh33EE6CursorEEEC2Ev@Base 1.2.31
 _ZN9__gnu_cxx13new_allocatorISt10_List_nodeIPN12kyotocabinet7PlantDBINS2_7CacheDBELh33EE6CursorEEED2Ev@Base 1.2.31
 _ZN9__gnu_cxx13new_allocatorISt10_List_nodeIPN12kyotocabinet7ProtoDBINSt3tr113unordered_mapISsSsNS4_4hashISsEESt8equal_toISsESaISt4pairIKSsSsEEEELh16EE6CursorEEE10deallocateEPSI_m@Base 1.2.31
 _ZN9__gnu_cxx13new_allocatorISt10_List_nodeIPN12kyotocabinet7ProtoDBINSt3tr113unordered_mapISsSsNS4_4hashISsEESt8equal_toISsESaISt4pairIKSsSsEEEELh16EE6CursorEEE8allocateEmPKv@Base 1.2.31
 _ZN9__gnu_cxx13new_allocatorISt10_List_nodeIPN12kyotocabinet7ProtoDBINSt3tr113unordered_mapISsSsNS4_4hashISsEESt8equal_toISsESaISt4pairIKSsSsEEEELh16EE6CursorEEEC2Ev@Base 1.2.31
 _ZN9__gnu_cxx13new_allocatorISt10_List_nodeIPN12kyotocabinet7ProtoDBINSt3tr113unordered_mapISsSsNS4_4hashISsEESt8equal_toISsESaISt4pairIKSsSsEEEELh16EE6CursorEEED2Ev@Base 1.2.31
 _ZN9__gnu_cxx13new_allocatorISt10_List_nodeIPN12kyotocabinet7ProtoDBISt3mapISsSsSt4lessISsESaISt4pairIKSsSsEEELh17EE6CursorEEE10deallocateEPSF_m@Base 1.2.31
 _ZN9__gnu_cxx13new_allocatorISt10_List_nodeIPN12kyotocabinet7ProtoDBISt3mapISsSsSt4lessISsESaISt4pairIKSsSsEEELh17EE6CursorEEE8allocateEmPKv@Base 1.2.31
 _ZN9__gnu_cxx13new_allocatorISt10_List_nodeIPN12kyotocabinet7ProtoDBISt3mapISsSsSt4lessISsESaISt4pairIKSsSsEEELh17EE6CursorEEEC2Ev@Base 1.2.31
 _ZN9__gnu_cxx13new_allocatorISt10_List_nodeIPN12kyotocabinet7ProtoDBISt3mapISsSsSt4lessISsESaISt4pairIKSsSsEEELh17EE6CursorEEED2Ev@Base 1.2.31
 _ZN9__gnu_cxx13new_allocatorISt10_List_nodeIPN12kyotocabinet7StashDB6CursorEEE10deallocateEPS6_m@Base 1.2.31
 _ZN9__gnu_cxx13new_allocatorISt10_List_nodeIPN12kyotocabinet7StashDB6CursorEEE8allocateEmPKv@Base 1.2.31
 _ZN9__gnu_cxx13new_allocatorISt10_List_nodeIPN12kyotocabinet7StashDB6CursorEEEC2Ev@Base 1.2.31
 _ZN9__gnu_cxx13new_allocatorISt10_List_nodeIPN12kyotocabinet7StashDB6CursorEEED2Ev@Base 1.2.31
 _ZN9__gnu_cxx13new_allocatorISt13_Rb_tree_nodeIN12kyotocabinet6HashDB9FreeBlockEEE10deallocateEPS5_m@Base 1.2.31
 _ZN9__gnu_cxx13new_allocatorISt13_Rb_tree_nodeIN12kyotocabinet6HashDB9FreeBlockEEE8allocateEmPKv@Base 1.2.31
 _ZN9__gnu_cxx13new_allocatorISt13_Rb_tree_nodeIN12kyotocabinet6HashDB9FreeBlockEEEC2Ev@Base 1.2.31
 _ZN9__gnu_cxx13new_allocatorISt13_Rb_tree_nodeIN12kyotocabinet6HashDB9FreeBlockEEED2Ev@Base 1.2.31
 _ZN9__gnu_cxx13new_allocatorISt13_Rb_tree_nodeISt4pairIKSsSsEEE10deallocateEPS5_m@Base 1.2.31
 _ZN9__gnu_cxx13new_allocatorISt13_Rb_tree_nodeISt4pairIKSsSsEEE8allocateEmPKv@Base 1.2.31
 _ZN9__gnu_cxx13new_allocatorISt13_Rb_tree_nodeISt4pairIKSsSsEEEC2Ev@Base 1.2.31
 _ZN9__gnu_cxx13new_allocatorISt13_Rb_tree_nodeISt4pairIKSsSsEEED2Ev@Base 1.2.31
 _ZN9__gnu_cxx13new_allocatorISt13_Rb_tree_nodeIiEE10deallocateEPS2_m@Base 1.2.31
 _ZN9__gnu_cxx13new_allocatorISt13_Rb_tree_nodeIiEE8allocateEmPKv@Base 1.2.31
 _ZN9__gnu_cxx13new_allocatorISt13_Rb_tree_nodeIiEEC2Ev@Base 1.2.31
 _ZN9__gnu_cxx13new_allocatorISt13_Rb_tree_nodeIiEED2Ev@Base 1.2.31
 _ZN9__gnu_cxx13new_allocatorISt13_Rb_tree_nodeImEE10deallocateEPS2_m@Base 1.2.31
 _ZN9__gnu_cxx13new_allocatorISt13_Rb_tree_nodeImEE8allocateEmPKv@Base 1.2.31
 _ZN9__gnu_cxx13new_allocatorISt13_Rb_tree_nodeImEEC2Ev@Base 1.2.31
 _ZN9__gnu_cxx13new_allocatorISt13_Rb_tree_nodeImEED2Ev@Base 1.2.31
 _ZN9__gnu_cxx13new_allocatorISt4pairIKSsSsEE7destroyEPS3_@Base 1.2.31
 _ZN9__gnu_cxx13new_allocatorISt4pairIKSsSsEE9constructEPS3_RKS3_@Base 1.2.31
 _ZN9__gnu_cxx13new_allocatorISt4pairIKSsSsEEC2Ev@Base 1.2.31
 _ZN9__gnu_cxx13new_allocatorISt4pairIKSsSsEED2Ev@Base 1.2.31
 _ZN9__gnu_cxx13new_allocatorIiE7destroyEPi@Base 1.2.31
 _ZN9__gnu_cxx13new_allocatorIiE9constructEPiRKi@Base 1.2.31
 _ZN9__gnu_cxx13new_allocatorIiEC2Ev@Base 1.2.31
 _ZN9__gnu_cxx13new_allocatorIiED2Ev@Base 1.2.31
 _ZN9__gnu_cxx13new_allocatorImE7destroyEPm@Base 1.2.31
 _ZN9__gnu_cxx13new_allocatorImE9constructEPmRKm@Base 1.2.31
 _ZN9__gnu_cxx13new_allocatorImEC2Ev@Base 1.2.31
 _ZN9__gnu_cxx13new_allocatorImED2Ev@Base 1.2.31
 _ZN9__gnu_cxx17__is_null_pointerINS_17__normal_iteratorIPKcSsEEEEbT_@Base 1.2.31
 _ZN9__gnu_cxx17__normal_iteratorIPKN12kyotocabinet6PolyDB9MergeLineESt6vectorIS3_SaIS3_EEEC1ERKS5_@Base 1.2.31
 _ZN9__gnu_cxx17__normal_iteratorIPKPN12kyotocabinet7PlantDBINS1_5DirDBELh65EE4LinkESt6vectorIS6_SaIS6_EEEC1ERKS8_@Base 1.2.31
 _ZN9__gnu_cxx17__normal_iteratorIPKPN12kyotocabinet7PlantDBINS1_5DirDBELh65EE4LinkESt6vectorIS6_SaIS6_EEEC1Ev@Base 1.2.31
 _ZN9__gnu_cxx17__normal_iteratorIPKPN12kyotocabinet7PlantDBINS1_5DirDBELh65EE4LinkESt6vectorIS6_SaIS6_EEEC1IPS6_EERKNS0_IT_NS_11__enable_ifIXsrSt10__are_sameISF_SE_E7__valueESB_E6__typeEEE@Base 1.2.31
 _ZN9__gnu_cxx17__normal_iteratorIPKPN12kyotocabinet7PlantDBINS1_5DirDBELh65EE4LinkESt6vectorIS6_SaIS6_EEEmmEi@Base 1.2.31
 _ZN9__gnu_cxx17__normal_iteratorIPKPN12kyotocabinet7PlantDBINS1_5DirDBELh65EE4LinkESt6vectorIS6_SaIS6_EEEpLERKl@Base 1.2.31
 _ZN9__gnu_cxx17__normal_iteratorIPKPN12kyotocabinet7PlantDBINS1_5DirDBELh65EE4LinkESt6vectorIS6_SaIS6_EEEppEi@Base 1.2.31
 _ZN9__gnu_cxx17__normal_iteratorIPKPN12kyotocabinet7PlantDBINS1_5DirDBELh65EE4LinkESt6vectorIS6_SaIS6_EEEppEv@Base 1.2.31
 _ZN9__gnu_cxx17__normal_iteratorIPKPN12kyotocabinet7PlantDBINS1_5DirDBELh65EE6RecordESt6vectorIS6_SaIS6_EEEC1ERKS8_@Base 1.2.31
 _ZN9__gnu_cxx17__normal_iteratorIPKPN12kyotocabinet7PlantDBINS1_5DirDBELh65EE6RecordESt6vectorIS6_SaIS6_EEEC1Ev@Base 1.2.31
 _ZN9__gnu_cxx17__normal_iteratorIPKPN12kyotocabinet7PlantDBINS1_5DirDBELh65EE6RecordESt6vectorIS6_SaIS6_EEEC1IPS6_EERKNS0_IT_NS_11__enable_ifIXsrSt10__are_sameISF_SE_E7__valueESB_E6__typeEEE@Base 1.2.31
 _ZN9__gnu_cxx17__normal_iteratorIPKPN12kyotocabinet7PlantDBINS1_5DirDBELh65EE6RecordESt6vectorIS6_SaIS6_EEEmmEi@Base 1.2.31
 _ZN9__gnu_cxx17__normal_iteratorIPKPN12kyotocabinet7PlantDBINS1_5DirDBELh65EE6RecordESt6vectorIS6_SaIS6_EEEpLERKl@Base 1.2.31
 _ZN9__gnu_cxx17__normal_iteratorIPKPN12kyotocabinet7PlantDBINS1_5DirDBELh65EE6RecordESt6vectorIS6_SaIS6_EEEppEi@Base 1.2.31
 _ZN9__gnu_cxx17__normal_iteratorIPKPN12kyotocabinet7PlantDBINS1_5DirDBELh65EE6RecordESt6vectorIS6_SaIS6_EEEppEv@Base 1.2.31
 _ZN9__gnu_cxx17__normal_iteratorIPKPN12kyotocabinet7PlantDBINS1_6HashDBELh49EE4LinkESt6vectorIS6_SaIS6_EEEC1ERKS8_@Base 1.2.31
 _ZN9__gnu_cxx17__normal_iteratorIPKPN12kyotocabinet7PlantDBINS1_6HashDBELh49EE4LinkESt6vectorIS6_SaIS6_EEEC1Ev@Base 1.2.31
 _ZN9__gnu_cxx17__normal_iteratorIPKPN12kyotocabinet7PlantDBINS1_6HashDBELh49EE4LinkESt6vectorIS6_SaIS6_EEEC1IPS6_EERKNS0_IT_NS_11__enable_ifIXsrSt10__are_sameISF_SE_E7__valueESB_E6__typeEEE@Base 1.2.31
 _ZN9__gnu_cxx17__normal_iteratorIPKPN12kyotocabinet7PlantDBINS1_6HashDBELh49EE4LinkESt6vectorIS6_SaIS6_EEEmmEi@Base 1.2.31
 _ZN9__gnu_cxx17__normal_iteratorIPKPN12kyotocabinet7PlantDBINS1_6HashDBELh49EE4LinkESt6vectorIS6_SaIS6_EEEpLERKl@Base 1.2.31
 _ZN9__gnu_cxx17__normal_iteratorIPKPN12kyotocabinet7PlantDBINS1_6HashDBELh49EE4LinkESt6vectorIS6_SaIS6_EEEppEi@Base 1.2.31
 _ZN9__gnu_cxx17__normal_iteratorIPKPN12kyotocabinet7PlantDBINS1_6HashDBELh49EE4LinkESt6vectorIS6_SaIS6_EEEppEv@Base 1.2.31
 _ZN9__gnu_cxx17__normal_iteratorIPKPN12kyotocabinet7PlantDBINS1_6HashDBELh49EE6RecordESt6vectorIS6_SaIS6_EEEC1ERKS8_@Base 1.2.31
 _ZN9__gnu_cxx17__normal_iteratorIPKPN12kyotocabinet7PlantDBINS1_6HashDBELh49EE6RecordESt6vectorIS6_SaIS6_EEEC1Ev@Base 1.2.31
 _ZN9__gnu_cxx17__normal_iteratorIPKPN12kyotocabinet7PlantDBINS1_6HashDBELh49EE6RecordESt6vectorIS6_SaIS6_EEEC1IPS6_EERKNS0_IT_NS_11__enable_ifIXsrSt10__are_sameISF_SE_E7__valueESB_E6__typeEEE@Base 1.2.31
 _ZN9__gnu_cxx17__normal_iteratorIPKPN12kyotocabinet7PlantDBINS1_6HashDBELh49EE6RecordESt6vectorIS6_SaIS6_EEEmmEi@Base 1.2.31
 _ZN9__gnu_cxx17__normal_iteratorIPKPN12kyotocabinet7PlantDBINS1_6HashDBELh49EE6RecordESt6vectorIS6_SaIS6_EEEpLERKl@Base 1.2.31
 _ZN9__gnu_cxx17__normal_iteratorIPKPN12kyotocabinet7PlantDBINS1_6HashDBELh49EE6RecordESt6vectorIS6_SaIS6_EEEppEi@Base 1.2.31
 _ZN9__gnu_cxx17__normal_iteratorIPKPN12kyotocabinet7PlantDBINS1_6HashDBELh49EE6RecordESt6vectorIS6_SaIS6_EEEppEv@Base 1.2.31
 _ZN9__gnu_cxx17__normal_iteratorIPKPN12kyotocabinet7PlantDBINS1_7CacheDBELh33EE4LinkESt6vectorIS6_SaIS6_EEEC1ERKS8_@Base 1.2.31
 _ZN9__gnu_cxx17__normal_iteratorIPKPN12kyotocabinet7PlantDBINS1_7CacheDBELh33EE4LinkESt6vectorIS6_SaIS6_EEEC1Ev@Base 1.2.31
 _ZN9__gnu_cxx17__normal_iteratorIPKPN12kyotocabinet7PlantDBINS1_7CacheDBELh33EE4LinkESt6vectorIS6_SaIS6_EEEC1IPS6_EERKNS0_IT_NS_11__enable_ifIXsrSt10__are_sameISF_SE_E7__valueESB_E6__typeEEE@Base 1.2.31
 _ZN9__gnu_cxx17__normal_iteratorIPKPN12kyotocabinet7PlantDBINS1_7CacheDBELh33EE4LinkESt6vectorIS6_SaIS6_EEEmmEi@Base 1.2.31
 _ZN9__gnu_cxx17__normal_iteratorIPKPN12kyotocabinet7PlantDBINS1_7CacheDBELh33EE4LinkESt6vectorIS6_SaIS6_EEEpLERKl@Base 1.2.31
 _ZN9__gnu_cxx17__normal_iteratorIPKPN12kyotocabinet7PlantDBINS1_7CacheDBELh33EE4LinkESt6vectorIS6_SaIS6_EEEppEi@Base 1.2.31
 _ZN9__gnu_cxx17__normal_iteratorIPKPN12kyotocabinet7PlantDBINS1_7CacheDBELh33EE4LinkESt6vectorIS6_SaIS6_EEEppEv@Base 1.2.31
 _ZN9__gnu_cxx17__normal_iteratorIPKPN12kyotocabinet7PlantDBINS1_7CacheDBELh33EE6RecordESt6vectorIS6_SaIS6_EEEC1ERKS8_@Base 1.2.31
 _ZN9__gnu_cxx17__normal_iteratorIPKPN12kyotocabinet7PlantDBINS1_7CacheDBELh33EE6RecordESt6vectorIS6_SaIS6_EEEC1Ev@Base 1.2.31
 _ZN9__gnu_cxx17__normal_iteratorIPKPN12kyotocabinet7PlantDBINS1_7CacheDBELh33EE6RecordESt6vectorIS6_SaIS6_EEEC1IPS6_EERKNS0_IT_NS_11__enable_ifIXsrSt10__are_sameISF_SE_E7__valueESB_E6__typeEEE@Base 1.2.31
 _ZN9__gnu_cxx17__normal_iteratorIPKPN12kyotocabinet7PlantDBINS1_7CacheDBELh33EE6RecordESt6vectorIS6_SaIS6_EEEmmEi@Base 1.2.31
 _ZN9__gnu_cxx17__normal_iteratorIPKPN12kyotocabinet7PlantDBINS1_7CacheDBELh33EE6RecordESt6vectorIS6_SaIS6_EEEpLERKl@Base 1.2.31
 _ZN9__gnu_cxx17__normal_iteratorIPKPN12kyotocabinet7PlantDBINS1_7CacheDBELh33EE6RecordESt6vectorIS6_SaIS6_EEEppEi@Base 1.2.31
 _ZN9__gnu_cxx17__normal_iteratorIPKPN12kyotocabinet7PlantDBINS1_7CacheDBELh33EE6RecordESt6vectorIS6_SaIS6_EEEppEv@Base 1.2.31
 _ZN9__gnu_cxx17__normal_iteratorIPKSsSt6vectorISsSaISsEEEC1ERKS2_@Base 1.2.31
 _ZN9__gnu_cxx17__normal_iteratorIPKSsSt6vectorISsSaISsEEEppEi@Base 1.2.31
 _ZN9__gnu_cxx17__normal_iteratorIPKcSsEC1ERKS2_@Base 1.2.31
 _ZN9__gnu_cxx17__normal_iteratorIPKcSsEppEi@Base 1.2.31
 _ZN9__gnu_cxx17__normal_iteratorIPN12kyotocabinet10WALMessageESt6vectorIS2_SaIS2_EEEC1ERKS3_@Base 1.2.31
 _ZN9__gnu_cxx17__normal_iteratorIPN12kyotocabinet6PolyDB9MergeLineESt6vectorIS3_SaIS3_EEEC1ERKS4_@Base 1.2.31
 _ZN9__gnu_cxx17__normal_iteratorIPN12kyotocabinet6PolyDB9MergeLineESt6vectorIS3_SaIS3_EEEmmEv@Base 1.2.31
 _ZN9__gnu_cxx17__normal_iteratorIPPN12kyotocabinet7PlantDBINS1_5DirDBELh65EE4LinkESt6vectorIS6_SaIS6_EEEC1ERKS7_@Base 1.2.31
 _ZN9__gnu_cxx17__normal_iteratorIPPN12kyotocabinet7PlantDBINS1_5DirDBELh65EE4LinkESt6vectorIS6_SaIS6_EEEC1Ev@Base 1.2.31
 _ZN9__gnu_cxx17__normal_iteratorIPPN12kyotocabinet7PlantDBINS1_5DirDBELh65EE4LinkESt6vectorIS6_SaIS6_EEEpLERKl@Base 1.2.31
 _ZN9__gnu_cxx17__normal_iteratorIPPN12kyotocabinet7PlantDBINS1_5DirDBELh65EE4LinkESt6vectorIS6_SaIS6_EEEppEi@Base 1.2.31
 _ZN9__gnu_cxx17__normal_iteratorIPPN12kyotocabinet7PlantDBINS1_5DirDBELh65EE4LinkESt6vectorIS6_SaIS6_EEEppEv@Base 1.2.31
 _ZN9__gnu_cxx17__normal_iteratorIPPN12kyotocabinet7PlantDBINS1_5DirDBELh65EE6RecordESt6vectorIS6_SaIS6_EEEC1ERKS7_@Base 1.2.31
 _ZN9__gnu_cxx17__normal_iteratorIPPN12kyotocabinet7PlantDBINS1_5DirDBELh65EE6RecordESt6vectorIS6_SaIS6_EEEC1Ev@Base 1.2.31
 _ZN9__gnu_cxx17__normal_iteratorIPPN12kyotocabinet7PlantDBINS1_5DirDBELh65EE6RecordESt6vectorIS6_SaIS6_EEEmmEi@Base 1.2.31
 _ZN9__gnu_cxx17__normal_iteratorIPPN12kyotocabinet7PlantDBINS1_5DirDBELh65EE6RecordESt6vectorIS6_SaIS6_EEEpLERKl@Base 1.2.31
 _ZN9__gnu_cxx17__normal_iteratorIPPN12kyotocabinet7PlantDBINS1_5DirDBELh65EE6RecordESt6vectorIS6_SaIS6_EEEppEi@Base 1.2.31
 _ZN9__gnu_cxx17__normal_iteratorIPPN12kyotocabinet7PlantDBINS1_5DirDBELh65EE6RecordESt6vectorIS6_SaIS6_EEEppEv@Base 1.2.31
 _ZN9__gnu_cxx17__normal_iteratorIPPN12kyotocabinet7PlantDBINS1_6HashDBELh49EE4LinkESt6vectorIS6_SaIS6_EEEC1ERKS7_@Base 1.2.31
 _ZN9__gnu_cxx17__normal_iteratorIPPN12kyotocabinet7PlantDBINS1_6HashDBELh49EE4LinkESt6vectorIS6_SaIS6_EEEC1Ev@Base 1.2.31
 _ZN9__gnu_cxx17__normal_iteratorIPPN12kyotocabinet7PlantDBINS1_6HashDBELh49EE4LinkESt6vectorIS6_SaIS6_EEEpLERKl@Base 1.2.31
 _ZN9__gnu_cxx17__normal_iteratorIPPN12kyotocabinet7PlantDBINS1_6HashDBELh49EE4LinkESt6vectorIS6_SaIS6_EEEppEi@Base 1.2.31
 _ZN9__gnu_cxx17__normal_iteratorIPPN12kyotocabinet7PlantDBINS1_6HashDBELh49EE4LinkESt6vectorIS6_SaIS6_EEEppEv@Base 1.2.31
 _ZN9__gnu_cxx17__normal_iteratorIPPN12kyotocabinet7PlantDBINS1_6HashDBELh49EE6RecordESt6vectorIS6_SaIS6_EEEC1ERKS7_@Base 1.2.31
 _ZN9__gnu_cxx17__normal_iteratorIPPN12kyotocabinet7PlantDBINS1_6HashDBELh49EE6RecordESt6vectorIS6_SaIS6_EEEC1Ev@Base 1.2.31
 _ZN9__gnu_cxx17__normal_iteratorIPPN12kyotocabinet7PlantDBINS1_6HashDBELh49EE6RecordESt6vectorIS6_SaIS6_EEEmmEi@Base 1.2.31
 _ZN9__gnu_cxx17__normal_iteratorIPPN12kyotocabinet7PlantDBINS1_6HashDBELh49EE6RecordESt6vectorIS6_SaIS6_EEEpLERKl@Base 1.2.31
 _ZN9__gnu_cxx17__normal_iteratorIPPN12kyotocabinet7PlantDBINS1_6HashDBELh49EE6RecordESt6vectorIS6_SaIS6_EEEppEi@Base 1.2.31
 _ZN9__gnu_cxx17__normal_iteratorIPPN12kyotocabinet7PlantDBINS1_6HashDBELh49EE6RecordESt6vectorIS6_SaIS6_EEEppEv@Base 1.2.31
 _ZN9__gnu_cxx17__normal_iteratorIPPN12kyotocabinet7PlantDBINS1_7CacheDBELh33EE4LinkESt6vectorIS6_SaIS6_EEEC1ERKS7_@Base 1.2.31
 _ZN9__gnu_cxx17__normal_iteratorIPPN12kyotocabinet7PlantDBINS1_7CacheDBELh33EE4LinkESt6vectorIS6_SaIS6_EEEC1Ev@Base 1.2.31
 _ZN9__gnu_cxx17__normal_iteratorIPPN12kyotocabinet7PlantDBINS1_7CacheDBELh33EE4LinkESt6vectorIS6_SaIS6_EEEpLERKl@Base 1.2.31
 _ZN9__gnu_cxx17__normal_iteratorIPPN12kyotocabinet7PlantDBINS1_7CacheDBELh33EE4LinkESt6vectorIS6_SaIS6_EEEppEi@Base 1.2.31
 _ZN9__gnu_cxx17__normal_iteratorIPPN12kyotocabinet7PlantDBINS1_7CacheDBELh33EE4LinkESt6vectorIS6_SaIS6_EEEppEv@Base 1.2.31
 _ZN9__gnu_cxx17__normal_iteratorIPPN12kyotocabinet7PlantDBINS1_7CacheDBELh33EE6RecordESt6vectorIS6_SaIS6_EEEC1ERKS7_@Base 1.2.31
 _ZN9__gnu_cxx17__normal_iteratorIPPN12kyotocabinet7PlantDBINS1_7CacheDBELh33EE6RecordESt6vectorIS6_SaIS6_EEEC1Ev@Base 1.2.31
 _ZN9__gnu_cxx17__normal_iteratorIPPN12kyotocabinet7PlantDBINS1_7CacheDBELh33EE6RecordESt6vectorIS6_SaIS6_EEEmmEi@Base 1.2.31
 _ZN9__gnu_cxx17__normal_iteratorIPPN12kyotocabinet7PlantDBINS1_7CacheDBELh33EE6RecordESt6vectorIS6_SaIS6_EEEpLERKl@Base 1.2.31
 _ZN9__gnu_cxx17__normal_iteratorIPPN12kyotocabinet7PlantDBINS1_7CacheDBELh33EE6RecordESt6vectorIS6_SaIS6_EEEppEi@Base 1.2.31
 _ZN9__gnu_cxx17__normal_iteratorIPPN12kyotocabinet7PlantDBINS1_7CacheDBELh33EE6RecordESt6vectorIS6_SaIS6_EEEppEv@Base 1.2.31
 _ZN9__gnu_cxx17__normal_iteratorIPSsSt6vectorISsSaISsEEEC1ERKS1_@Base 1.2.31
 _ZN9__gnu_cxx17__normal_iteratorIPSsSt6vectorISsSaISsEEEppEi@Base 1.2.31
 _ZN9__gnu_cxxeqIPKN12kyotocabinet6PolyDB9MergeLineESt6vectorIS3_SaIS3_EEEEbRKNS_17__normal_iteratorIT_T0_EESE_@Base 1.2.31
 _ZN9__gnu_cxxeqIPKPN12kyotocabinet7PlantDBINS1_5DirDBELh65EE4LinkESt6vectorIS6_SaIS6_EEEEbRKNS_17__normal_iteratorIT_T0_EESH_@Base 1.2.31
 _ZN9__gnu_cxxeqIPKPN12kyotocabinet7PlantDBINS1_5DirDBELh65EE6RecordESt6vectorIS6_SaIS6_EEEEbRKNS_17__normal_iteratorIT_T0_EESH_@Base 1.2.31
 _ZN9__gnu_cxxeqIPKPN12kyotocabinet7PlantDBINS1_6HashDBELh49EE4LinkESt6vectorIS6_SaIS6_EEEEbRKNS_17__normal_iteratorIT_T0_EESH_@Base 1.2.31
 _ZN9__gnu_cxxeqIPKPN12kyotocabinet7PlantDBINS1_6HashDBELh49EE6RecordESt6vectorIS6_SaIS6_EEEEbRKNS_17__normal_iteratorIT_T0_EESH_@Base 1.2.31
 _ZN9__gnu_cxxeqIPKPN12kyotocabinet7PlantDBINS1_7CacheDBELh33EE4LinkESt6vectorIS6_SaIS6_EEEEbRKNS_17__normal_iteratorIT_T0_EESH_@Base 1.2.31
 _ZN9__gnu_cxxeqIPKPN12kyotocabinet7PlantDBINS1_7CacheDBELh33EE6RecordESt6vectorIS6_SaIS6_EEEEbRKNS_17__normal_iteratorIT_T0_EESH_@Base 1.2.31
 _ZN9__gnu_cxxeqIPKSsSt6vectorISsSaISsEEEEbRKNS_17__normal_iteratorIT_T0_EESB_@Base 1.2.31
 _ZN9__gnu_cxxeqIPKcSsEEbRKNS_17__normal_iteratorIT_T0_EES8_@Base 1.2.31
 _ZN9__gnu_cxxeqIPPN12kyotocabinet7PlantDBINS1_5DirDBELh65EE4LinkESt6vectorIS6_SaIS6_EEEEbRKNS_17__normal_iteratorIT_T0_EESG_@Base 1.2.31
 _ZN9__gnu_cxxeqIPPN12kyotocabinet7PlantDBINS1_5DirDBELh65EE6RecordESt6vectorIS6_SaIS6_EEEEbRKNS_17__normal_iteratorIT_T0_EESG_@Base 1.2.31
 _ZN9__gnu_cxxeqIPPN12kyotocabinet7PlantDBINS1_6HashDBELh49EE4LinkESt6vectorIS6_SaIS6_EEEEbRKNS_17__normal_iteratorIT_T0_EESG_@Base 1.2.31
 _ZN9__gnu_cxxeqIPPN12kyotocabinet7PlantDBINS1_6HashDBELh49EE6RecordESt6vectorIS6_SaIS6_EEEEbRKNS_17__normal_iteratorIT_T0_EESG_@Base 1.2.31
 _ZN9__gnu_cxxeqIPPN12kyotocabinet7PlantDBINS1_7CacheDBELh33EE4LinkESt6vectorIS6_SaIS6_EEEEbRKNS_17__normal_iteratorIT_T0_EESG_@Base 1.2.31
 _ZN9__gnu_cxxeqIPPN12kyotocabinet7PlantDBINS1_7CacheDBELh33EE6RecordESt6vectorIS6_SaIS6_EEEEbRKNS_17__normal_iteratorIT_T0_EESG_@Base 1.2.31
 _ZN9__gnu_cxxmiIPKPN12kyotocabinet7PlantDBINS1_5DirDBELh65EE4LinkESt6vectorIS6_SaIS6_EEEENS_17__normal_iteratorIT_T0_E15difference_typeERKSF_SI_@Base 1.2.31
 _ZN9__gnu_cxxmiIPKPN12kyotocabinet7PlantDBINS1_5DirDBELh65EE6RecordESt6vectorIS6_SaIS6_EEEENS_17__normal_iteratorIT_T0_E15difference_typeERKSF_SI_@Base 1.2.31
 _ZN9__gnu_cxxmiIPKPN12kyotocabinet7PlantDBINS1_6HashDBELh49EE4LinkESt6vectorIS6_SaIS6_EEEENS_17__normal_iteratorIT_T0_E15difference_typeERKSF_SI_@Base 1.2.31
 _ZN9__gnu_cxxmiIPKPN12kyotocabinet7PlantDBINS1_6HashDBELh49EE6RecordESt6vectorIS6_SaIS6_EEEENS_17__normal_iteratorIT_T0_E15difference_typeERKSF_SI_@Base 1.2.31
 _ZN9__gnu_cxxmiIPKPN12kyotocabinet7PlantDBINS1_7CacheDBELh33EE4LinkESt6vectorIS6_SaIS6_EEEENS_17__normal_iteratorIT_T0_E15difference_typeERKSF_SI_@Base 1.2.31
 _ZN9__gnu_cxxmiIPKPN12kyotocabinet7PlantDBINS1_7CacheDBELh33EE6RecordESt6vectorIS6_SaIS6_EEEENS_17__normal_iteratorIT_T0_E15difference_typeERKSF_SI_@Base 1.2.31
 _ZN9__gnu_cxxmiIPKcSsEENS_17__normal_iteratorIT_T0_E15difference_typeERKS6_S9_@Base 1.2.31
 _ZN9__gnu_cxxmiIPN12kyotocabinet10WALMessageESt6vectorIS2_SaIS2_EEEENS_17__normal_iteratorIT_T0_E15difference_typeERKSA_SD_@Base 1.2.31
 _ZN9__gnu_cxxmiIPN12kyotocabinet6PolyDB9MergeLineESt6vectorIS3_SaIS3_EEEENS_17__normal_iteratorIT_T0_E15difference_typeERKSB_SE_@Base 1.2.31
 _ZN9__gnu_cxxmiIPPN12kyotocabinet7PlantDBINS1_5DirDBELh65EE4LinkESt6vectorIS6_SaIS6_EEEENS_17__normal_iteratorIT_T0_E15difference_typeERKSE_SH_@Base 1.2.31
 _ZN9__gnu_cxxmiIPPN12kyotocabinet7PlantDBINS1_5DirDBELh65EE6RecordESt6vectorIS6_SaIS6_EEEENS_17__normal_iteratorIT_T0_E15difference_typeERKSE_SH_@Base 1.2.31
 _ZN9__gnu_cxxmiIPPN12kyotocabinet7PlantDBINS1_6HashDBELh49EE4LinkESt6vectorIS6_SaIS6_EEEENS_17__normal_iteratorIT_T0_E15difference_typeERKSE_SH_@Base 1.2.31
 _ZN9__gnu_cxxmiIPPN12kyotocabinet7PlantDBINS1_6HashDBELh49EE6RecordESt6vectorIS6_SaIS6_EEEENS_17__normal_iteratorIT_T0_E15difference_typeERKSE_SH_@Base 1.2.31
 _ZN9__gnu_cxxmiIPPN12kyotocabinet7PlantDBINS1_7CacheDBELh33EE4LinkESt6vectorIS6_SaIS6_EEEENS_17__normal_iteratorIT_T0_E15difference_typeERKSE_SH_@Base 1.2.31
 _ZN9__gnu_cxxmiIPPN12kyotocabinet7PlantDBINS1_7CacheDBELh33EE6RecordESt6vectorIS6_SaIS6_EEEENS_17__normal_iteratorIT_T0_E15difference_typeERKSE_SH_@Base 1.2.31
 _ZN9__gnu_cxxmiIPSsSt6vectorISsSaISsEEEENS_17__normal_iteratorIT_T0_E15difference_typeERKS8_SB_@Base 1.2.31
 _ZN9__gnu_cxxneIPKPN12kyotocabinet7PlantDBINS1_5DirDBELh65EE4LinkESt6vectorIS6_SaIS6_EEEEbRKNS_17__normal_iteratorIT_T0_EESH_@Base 1.2.31
 _ZN9__gnu_cxxneIPKPN12kyotocabinet7PlantDBINS1_5DirDBELh65EE6RecordESt6vectorIS6_SaIS6_EEEEbRKNS_17__normal_iteratorIT_T0_EESH_@Base 1.2.31
 _ZN9__gnu_cxxneIPKPN12kyotocabinet7PlantDBINS1_6HashDBELh49EE4LinkESt6vectorIS6_SaIS6_EEEEbRKNS_17__normal_iteratorIT_T0_EESH_@Base 1.2.31
 _ZN9__gnu_cxxneIPKPN12kyotocabinet7PlantDBINS1_6HashDBELh49EE6RecordESt6vectorIS6_SaIS6_EEEEbRKNS_17__normal_iteratorIT_T0_EESH_@Base 1.2.31
 _ZN9__gnu_cxxneIPKPN12kyotocabinet7PlantDBINS1_7CacheDBELh33EE4LinkESt6vectorIS6_SaIS6_EEEEbRKNS_17__normal_iteratorIT_T0_EESH_@Base 1.2.31
 _ZN9__gnu_cxxneIPKPN12kyotocabinet7PlantDBINS1_7CacheDBELh33EE6RecordESt6vectorIS6_SaIS6_EEEEbRKNS_17__normal_iteratorIT_T0_EESH_@Base 1.2.31
 _ZN9__gnu_cxxneIPKSsSt6vectorISsSaISsEEEEbRKNS_17__normal_iteratorIT_T0_EESB_@Base 1.2.31
 _ZN9__gnu_cxxneIPKcSsEEbRKNS_17__normal_iteratorIT_T0_EES8_@Base 1.2.31
 _ZN9__gnu_cxxneIPPN12kyotocabinet7PlantDBINS1_5DirDBELh65EE4LinkESt6vectorIS6_SaIS6_EEEEbRKNS_17__normal_iteratorIT_T0_EESG_@Base 1.2.31
 _ZN9__gnu_cxxneIPPN12kyotocabinet7PlantDBINS1_5DirDBELh65EE6RecordESt6vectorIS6_SaIS6_EEEEbRKNS_17__normal_iteratorIT_T0_EESG_@Base 1.2.31
 _ZN9__gnu_cxxneIPPN12kyotocabinet7PlantDBINS1_6HashDBELh49EE4LinkESt6vectorIS6_SaIS6_EEEEbRKNS_17__normal_iteratorIT_T0_EESG_@Base 1.2.31
 _ZN9__gnu_cxxneIPPN12kyotocabinet7PlantDBINS1_6HashDBELh49EE6RecordESt6vectorIS6_SaIS6_EEEEbRKNS_17__normal_iteratorIT_T0_EESG_@Base 1.2.31
 _ZN9__gnu_cxxneIPPN12kyotocabinet7PlantDBINS1_7CacheDBELh33EE4LinkESt6vectorIS6_SaIS6_EEEEbRKNS_17__normal_iteratorIT_T0_EESG_@Base 1.2.31
 _ZN9__gnu_cxxneIPPN12kyotocabinet7PlantDBINS1_7CacheDBELh33EE6RecordESt6vectorIS6_SaIS6_EEEEbRKNS_17__normal_iteratorIT_T0_EESG_@Base 1.2.31
 _ZN9__gnu_cxxneIPSsSt6vectorISsSaISsEEEEbRKNS_17__normal_iteratorIT_T0_EESA_@Base 1.2.31
 _ZNK12kyotocabinet11AtomicInt643getEv@Base 1.2.31
 _ZNK12kyotocabinet11AtomicInt64cvlEv@Base 1.2.31
 _ZNK12kyotocabinet13LinkedHashMapIlPNS_7PlantDBINS_5DirDBELh65EE8LeafNodeENSt3tr14hashIlEESt8equal_toIlEE8IteratorneERKSC_@Base 1.2.31
 _ZNK12kyotocabinet13LinkedHashMapIlPNS_7PlantDBINS_5DirDBELh65EE9InnerNodeENSt3tr14hashIlEESt8equal_toIlEE8IteratorneERKSC_@Base 1.2.31
 _ZNK12kyotocabinet13LinkedHashMapIlPNS_7PlantDBINS_6HashDBELh49EE8LeafNodeENSt3tr14hashIlEESt8equal_toIlEE8IteratorneERKSC_@Base 1.2.31
 _ZNK12kyotocabinet13LinkedHashMapIlPNS_7PlantDBINS_6HashDBELh49EE9InnerNodeENSt3tr14hashIlEESt8equal_toIlEE8IteratorneERKSC_@Base 1.2.31
 _ZNK12kyotocabinet13LinkedHashMapIlPNS_7PlantDBINS_7CacheDBELh33EE8LeafNodeENSt3tr14hashIlEESt8equal_toIlEE8IteratorneERKSC_@Base 1.2.31
 _ZNK12kyotocabinet13LinkedHashMapIlPNS_7PlantDBINS_7CacheDBELh33EE9InnerNodeENSt3tr14hashIlEESt8equal_toIlEE8IteratorneERKSC_@Base 1.2.31
 _ZNK12kyotocabinet3TSDINS_7BasicDB5ErrorEEcvS2_Ev@Base 1.2.31
 _ZNK12kyotocabinet4File4pathEv@Base 1.2.31
 _ZNK12kyotocabinet4File4sizeEv@Base 1.2.31
 _ZNK12kyotocabinet4File5errorEv@Base 1.2.31
 _ZNK12kyotocabinet4File9recoveredEv@Base 1.2.31
 _ZNK12kyotocabinet5DirDB5errorEv@Base 1.2.31
 _ZNK12kyotocabinet6HashDB19FreeBlockComparatorclERKNS0_9FreeBlockES4_@Base 1.2.31
 _ZNK12kyotocabinet6HashDB5errorEv@Base 1.2.31
 _ZNK12kyotocabinet6HashDB9FreeBlockltERKS1_@Base 1.2.31
 _ZNK12kyotocabinet6PolyDB5errorEv@Base 1.2.31
 _ZNK12kyotocabinet6PolyDB9MergeLineltERKS1_@Base 1.2.31
 _ZNK12kyotocabinet6TSDKey3getEv@Base 1.2.31
 _ZNK12kyotocabinet7BasicDB5Error4codeEv@Base 1.2.31
 _ZNK12kyotocabinet7BasicDB5Error7messageEv@Base 1.2.31
 _ZNK12kyotocabinet7BasicDB5ErrorcviEv@Base 1.2.31
 _ZNK12kyotocabinet7CacheDB5errorEv@Base 1.2.31
 _ZNK12kyotocabinet7PlantDBINS_5DirDBELh65EE14LinkComparatorclERKPKNS2_4LinkES8_@Base 1.2.31
 _ZNK12kyotocabinet7PlantDBINS_5DirDBELh65EE16RecordComparatorclERKPKNS2_6RecordES8_@Base 1.2.31
 _ZNK12kyotocabinet7PlantDBINS_5DirDBELh65EE5errorEv@Base 1.2.31
 _ZNK12kyotocabinet7PlantDBINS_6HashDBELh49EE14LinkComparatorclERKPKNS2_4LinkES8_@Base 1.2.31
 _ZNK12kyotocabinet7PlantDBINS_6HashDBELh49EE16RecordComparatorclERKPKNS2_6RecordES8_@Base 1.2.31
 _ZNK12kyotocabinet7PlantDBINS_6HashDBELh49EE5errorEv@Base 1.2.31
 _ZNK12kyotocabinet7PlantDBINS_7CacheDBELh33EE14LinkComparatorclERKPKNS2_4LinkES8_@Base 1.2.31
 _ZNK12kyotocabinet7PlantDBINS_7CacheDBELh33EE16RecordComparatorclERKPKNS2_6RecordES8_@Base 1.2.31
 _ZNK12kyotocabinet7PlantDBINS_7CacheDBELh33EE5errorEv@Base 1.2.31
 _ZNK12kyotocabinet7ProtoDBINSt3tr113unordered_mapISsSsNS1_4hashISsEESt8equal_toISsESaISt4pairIKSsSsEEEELh16EE5errorEv@Base 1.2.31
 _ZNK12kyotocabinet7ProtoDBISt3mapISsSsSt4lessISsESaISt4pairIKSsSsEEELh17EE5errorEv@Base 1.2.31
 _ZNK12kyotocabinet7StashDB5errorEv@Base 1.2.31
 _ZNK9__gnu_cxx13new_allocatorIN12kyotocabinet10WALMessageEE8max_sizeEv@Base 1.2.31
 _ZNK9__gnu_cxx13new_allocatorIN12kyotocabinet6PolyDB9MergeLineEE8max_sizeEv@Base 1.2.31
 _ZNK9__gnu_cxx13new_allocatorINSt3tr18__detail10_Hash_nodeISt4pairIKSsSsELb0EEEE8max_sizeEv@Base 1.2.31
 _ZNK9__gnu_cxx13new_allocatorIPN12kyotocabinet7PlantDBINS1_5DirDBELh65EE4LinkEE8max_sizeEv@Base 1.2.31
 _ZNK9__gnu_cxx13new_allocatorIPN12kyotocabinet7PlantDBINS1_5DirDBELh65EE6RecordEE8max_sizeEv@Base 1.2.31
 _ZNK9__gnu_cxx13new_allocatorIPN12kyotocabinet7PlantDBINS1_6HashDBELh49EE4LinkEE8max_sizeEv@Base 1.2.31
 _ZNK9__gnu_cxx13new_allocatorIPN12kyotocabinet7PlantDBINS1_6HashDBELh49EE6RecordEE8max_sizeEv@Base 1.2.31
 _ZNK9__gnu_cxx13new_allocatorIPN12kyotocabinet7PlantDBINS1_7CacheDBELh33EE4LinkEE8max_sizeEv@Base 1.2.31
 _ZNK9__gnu_cxx13new_allocatorIPN12kyotocabinet7PlantDBINS1_7CacheDBELh33EE6RecordEE8max_sizeEv@Base 1.2.31
 _ZNK9__gnu_cxx13new_allocatorIPNSt3tr18__detail10_Hash_nodeISt4pairIKSsSsELb0EEEE8max_sizeEv@Base 1.2.31
 _ZNK9__gnu_cxx13new_allocatorISsE8max_sizeEv@Base 1.2.31
 _ZNK9__gnu_cxx13new_allocatorISt10_List_nodeIN12kyotocabinet7CacheDB7TranLogEEE8max_sizeEv@Base 1.2.31
 _ZNK9__gnu_cxx13new_allocatorISt10_List_nodeIN12kyotocabinet7ProtoDBINSt3tr113unordered_mapISsSsNS4_4hashISsEESt8equal_toISsESaISt4pairIKSsSsEEEELh16EE7TranLogEEE8max_sizeEv@Base 1.2.31
 _ZNK9__gnu_cxx13new_allocatorISt10_List_nodeIN12kyotocabinet7ProtoDBISt3mapISsSsSt4lessISsESaISt4pairIKSsSsEEELh17EE7TranLogEEE8max_sizeEv@Base 1.2.31
 _ZNK9__gnu_cxx13new_allocatorISt10_List_nodeIN12kyotocabinet7StashDB7TranLogEEE8max_sizeEv@Base 1.2.31
 _ZNK9__gnu_cxx13new_allocatorISt10_List_nodeIPN12kyotocabinet5DirDB6CursorEEE8max_sizeEv@Base 1.2.31
 _ZNK9__gnu_cxx13new_allocatorISt10_List_nodeIPN12kyotocabinet6HashDB6CursorEEE8max_sizeEv@Base 1.2.31
 _ZNK9__gnu_cxx13new_allocatorISt10_List_nodeIPN12kyotocabinet7CacheDB6CursorEEE8max_sizeEv@Base 1.2.31
 _ZNK9__gnu_cxx13new_allocatorISt10_List_nodeIPN12kyotocabinet7PlantDBINS2_5DirDBELh65EE6CursorEEE8max_sizeEv@Base 1.2.31
 _ZNK9__gnu_cxx13new_allocatorISt10_List_nodeIPN12kyotocabinet7PlantDBINS2_6HashDBELh49EE6CursorEEE8max_sizeEv@Base 1.2.31
 _ZNK9__gnu_cxx13new_allocatorISt10_List_nodeIPN12kyotocabinet7PlantDBINS2_7CacheDBELh33EE6CursorEEE8max_sizeEv@Base 1.2.31
 _ZNK9__gnu_cxx13new_allocatorISt10_List_nodeIPN12kyotocabinet7ProtoDBINSt3tr113unordered_mapISsSsNS4_4hashISsEESt8equal_toISsESaISt4pairIKSsSsEEEELh16EE6CursorEEE8max_sizeEv@Base 1.2.31
 _ZNK9__gnu_cxx13new_allocatorISt10_List_nodeIPN12kyotocabinet7ProtoDBISt3mapISsSsSt4lessISsESaISt4pairIKSsSsEEELh17EE6CursorEEE8max_sizeEv@Base 1.2.31
 _ZNK9__gnu_cxx13new_allocatorISt10_List_nodeIPN12kyotocabinet7StashDB6CursorEEE8max_sizeEv@Base 1.2.31
 _ZNK9__gnu_cxx13new_allocatorISt13_Rb_tree_nodeIN12kyotocabinet6HashDB9FreeBlockEEE8max_sizeEv@Base 1.2.31
 _ZNK9__gnu_cxx13new_allocatorISt13_Rb_tree_nodeISt4pairIKSsSsEEE8max_sizeEv@Base 1.2.31
 _ZNK9__gnu_cxx13new_allocatorISt13_Rb_tree_nodeIiEE8max_sizeEv@Base 1.2.31
 _ZNK9__gnu_cxx13new_allocatorISt13_Rb_tree_nodeImEE8max_sizeEv@Base 1.2.31
 _ZNK9__gnu_cxx17__normal_iteratorIPKN12kyotocabinet6PolyDB9MergeLineESt6vectorIS3_SaIS3_EEE4baseEv@Base 1.2.31
 _ZNK9__gnu_cxx17__normal_iteratorIPKN12kyotocabinet6PolyDB9MergeLineESt6vectorIS3_SaIS3_EEEdeEv@Base 1.2.31
 _ZNK9__gnu_cxx17__normal_iteratorIPKPN12kyotocabinet7PlantDBINS1_5DirDBELh65EE4LinkESt6vectorIS6_SaIS6_EEE4baseEv@Base 1.2.31
 _ZNK9__gnu_cxx17__normal_iteratorIPKPN12kyotocabinet7PlantDBINS1_5DirDBELh65EE4LinkESt6vectorIS6_SaIS6_EEEdeEv@Base 1.2.31
 _ZNK9__gnu_cxx17__normal_iteratorIPKPN12kyotocabinet7PlantDBINS1_5DirDBELh65EE6RecordESt6vectorIS6_SaIS6_EEE4baseEv@Base 1.2.31
 _ZNK9__gnu_cxx17__normal_iteratorIPKPN12kyotocabinet7PlantDBINS1_5DirDBELh65EE6RecordESt6vectorIS6_SaIS6_EEEdeEv@Base 1.2.31
 _ZNK9__gnu_cxx17__normal_iteratorIPKPN12kyotocabinet7PlantDBINS1_6HashDBELh49EE4LinkESt6vectorIS6_SaIS6_EEE4baseEv@Base 1.2.31
 _ZNK9__gnu_cxx17__normal_iteratorIPKPN12kyotocabinet7PlantDBINS1_6HashDBELh49EE4LinkESt6vectorIS6_SaIS6_EEEdeEv@Base 1.2.31
 _ZNK9__gnu_cxx17__normal_iteratorIPKPN12kyotocabinet7PlantDBINS1_6HashDBELh49EE6RecordESt6vectorIS6_SaIS6_EEE4baseEv@Base 1.2.31
 _ZNK9__gnu_cxx17__normal_iteratorIPKPN12kyotocabinet7PlantDBINS1_6HashDBELh49EE6RecordESt6vectorIS6_SaIS6_EEEdeEv@Base 1.2.31
 _ZNK9__gnu_cxx17__normal_iteratorIPKPN12kyotocabinet7PlantDBINS1_7CacheDBELh33EE4LinkESt6vectorIS6_SaIS6_EEE4baseEv@Base 1.2.31
 _ZNK9__gnu_cxx17__normal_iteratorIPKPN12kyotocabinet7PlantDBINS1_7CacheDBELh33EE4LinkESt6vectorIS6_SaIS6_EEEdeEv@Base 1.2.31
 _ZNK9__gnu_cxx17__normal_iteratorIPKPN12kyotocabinet7PlantDBINS1_7CacheDBELh33EE6RecordESt6vectorIS6_SaIS6_EEE4baseEv@Base 1.2.31
 _ZNK9__gnu_cxx17__normal_iteratorIPKPN12kyotocabinet7PlantDBINS1_7CacheDBELh33EE6RecordESt6vectorIS6_SaIS6_EEEdeEv@Base 1.2.31
 _ZNK9__gnu_cxx17__normal_iteratorIPKSsSt6vectorISsSaISsEEE4baseEv@Base 1.2.31
 _ZNK9__gnu_cxx17__normal_iteratorIPKSsSt6vectorISsSaISsEEEdeEv@Base 1.2.31
 _ZNK9__gnu_cxx17__normal_iteratorIPKSsSt6vectorISsSaISsEEEptEv@Base 1.2.31
 _ZNK9__gnu_cxx17__normal_iteratorIPKcSsE4baseEv@Base 1.2.31
 _ZNK9__gnu_cxx17__normal_iteratorIPKcSsEdeEv@Base 1.2.31
 _ZNK9__gnu_cxx17__normal_iteratorIPKcSsEplERKl@Base 1.2.31
 _ZNK9__gnu_cxx17__normal_iteratorIPN12kyotocabinet10WALMessageESt6vectorIS2_SaIS2_EEE4baseEv@Base 1.2.31
 _ZNK9__gnu_cxx17__normal_iteratorIPN12kyotocabinet10WALMessageESt6vectorIS2_SaIS2_EEEdeEv@Base 1.2.31
 _ZNK9__gnu_cxx17__normal_iteratorIPN12kyotocabinet6PolyDB9MergeLineESt6vectorIS3_SaIS3_EEE4baseEv@Base 1.2.31
 _ZNK9__gnu_cxx17__normal_iteratorIPN12kyotocabinet6PolyDB9MergeLineESt6vectorIS3_SaIS3_EEEdeEv@Base 1.2.31
 _ZNK9__gnu_cxx17__normal_iteratorIPN12kyotocabinet6PolyDB9MergeLineESt6vectorIS3_SaIS3_EEEmiERKl@Base 1.2.31
 _ZNK9__gnu_cxx17__normal_iteratorIPN12kyotocabinet6PolyDB9MergeLineESt6vectorIS3_SaIS3_EEEplERKl@Base 1.2.31
 _ZNK9__gnu_cxx17__normal_iteratorIPPN12kyotocabinet7PlantDBINS1_5DirDBELh65EE4LinkESt6vectorIS6_SaIS6_EEE4baseEv@Base 1.2.31
 _ZNK9__gnu_cxx17__normal_iteratorIPPN12kyotocabinet7PlantDBINS1_5DirDBELh65EE4LinkESt6vectorIS6_SaIS6_EEEdeEv@Base 1.2.31
 _ZNK9__gnu_cxx17__normal_iteratorIPPN12kyotocabinet7PlantDBINS1_5DirDBELh65EE4LinkESt6vectorIS6_SaIS6_EEEmiERKl@Base 1.2.31
 _ZNK9__gnu_cxx17__normal_iteratorIPPN12kyotocabinet7PlantDBINS1_5DirDBELh65EE4LinkESt6vectorIS6_SaIS6_EEEplERKl@Base 1.2.31
 _ZNK9__gnu_cxx17__normal_iteratorIPPN12kyotocabinet7PlantDBINS1_5DirDBELh65EE6RecordESt6vectorIS6_SaIS6_EEE4baseEv@Base 1.2.31
 _ZNK9__gnu_cxx17__normal_iteratorIPPN12kyotocabinet7PlantDBINS1_5DirDBELh65EE6RecordESt6vectorIS6_SaIS6_EEEdeEv@Base 1.2.31
 _ZNK9__gnu_cxx17__normal_iteratorIPPN12kyotocabinet7PlantDBINS1_5DirDBELh65EE6RecordESt6vectorIS6_SaIS6_EEEmiERKl@Base 1.2.31
 _ZNK9__gnu_cxx17__normal_iteratorIPPN12kyotocabinet7PlantDBINS1_5DirDBELh65EE6RecordESt6vectorIS6_SaIS6_EEEplERKl@Base 1.2.31
 _ZNK9__gnu_cxx17__normal_iteratorIPPN12kyotocabinet7PlantDBINS1_6HashDBELh49EE4LinkESt6vectorIS6_SaIS6_EEE4baseEv@Base 1.2.31
 _ZNK9__gnu_cxx17__normal_iteratorIPPN12kyotocabinet7PlantDBINS1_6HashDBELh49EE4LinkESt6vectorIS6_SaIS6_EEEdeEv@Base 1.2.31
 _ZNK9__gnu_cxx17__normal_iteratorIPPN12kyotocabinet7PlantDBINS1_6HashDBELh49EE4LinkESt6vectorIS6_SaIS6_EEEmiERKl@Base 1.2.31
 _ZNK9__gnu_cxx17__normal_iteratorIPPN12kyotocabinet7PlantDBINS1_6HashDBELh49EE4LinkESt6vectorIS6_SaIS6_EEEplERKl@Base 1.2.31
 _ZNK9__gnu_cxx17__normal_iteratorIPPN12kyotocabinet7PlantDBINS1_6HashDBELh49EE6RecordESt6vectorIS6_SaIS6_EEE4baseEv@Base 1.2.31
 _ZNK9__gnu_cxx17__normal_iteratorIPPN12kyotocabinet7PlantDBINS1_6HashDBELh49EE6RecordESt6vectorIS6_SaIS6_EEEdeEv@Base 1.2.31
 _ZNK9__gnu_cxx17__normal_iteratorIPPN12kyotocabinet7PlantDBINS1_6HashDBELh49EE6RecordESt6vectorIS6_SaIS6_EEEmiERKl@Base 1.2.31
 _ZNK9__gnu_cxx17__normal_iteratorIPPN12kyotocabinet7PlantDBINS1_6HashDBELh49EE6RecordESt6vectorIS6_SaIS6_EEEplERKl@Base 1.2.31
 _ZNK9__gnu_cxx17__normal_iteratorIPPN12kyotocabinet7PlantDBINS1_7CacheDBELh33EE4LinkESt6vectorIS6_SaIS6_EEE4baseEv@Base 1.2.31
 _ZNK9__gnu_cxx17__normal_iteratorIPPN12kyotocabinet7PlantDBINS1_7CacheDBELh33EE4LinkESt6vectorIS6_SaIS6_EEEdeEv@Base 1.2.31
 _ZNK9__gnu_cxx17__normal_iteratorIPPN12kyotocabinet7PlantDBINS1_7CacheDBELh33EE4LinkESt6vectorIS6_SaIS6_EEEmiERKl@Base 1.2.31
 _ZNK9__gnu_cxx17__normal_iteratorIPPN12kyotocabinet7PlantDBINS1_7CacheDBELh33EE4LinkESt6vectorIS6_SaIS6_EEEplERKl@Base 1.2.31
 _ZNK9__gnu_cxx17__normal_iteratorIPPN12kyotocabinet7PlantDBINS1_7CacheDBELh33EE6RecordESt6vectorIS6_SaIS6_EEE4baseEv@Base 1.2.31
 _ZNK9__gnu_cxx17__normal_iteratorIPPN12kyotocabinet7PlantDBINS1_7CacheDBELh33EE6RecordESt6vectorIS6_SaIS6_EEEdeEv@Base 1.2.31
 _ZNK9__gnu_cxx17__normal_iteratorIPPN12kyotocabinet7PlantDBINS1_7CacheDBELh33EE6RecordESt6vectorIS6_SaIS6_EEEmiERKl@Base 1.2.31
 _ZNK9__gnu_cxx17__normal_iteratorIPPN12kyotocabinet7PlantDBINS1_7CacheDBELh33EE6RecordESt6vectorIS6_SaIS6_EEEplERKl@Base 1.2.31
 _ZNK9__gnu_cxx17__normal_iteratorIPSsSt6vectorISsSaISsEEE4baseEv@Base 1.2.31
 _ZNK9__gnu_cxx17__normal_iteratorIPSsSt6vectorISsSaISsEEEdeEv@Base 1.2.31
 _ZNK9__gnu_cxx17__normal_iteratorIPSsSt6vectorISsSaISsEEEmiERKl@Base 1.2.31
 _ZNK9__gnu_cxx17__normal_iteratorIPSsSt6vectorISsSaISsEEEptEv@Base 1.2.31
 _ZNKSt10_List_baseIN12kyotocabinet7CacheDB7TranLogESaIS2_EE19_M_get_Tp_allocatorEv@Base 1.2.31
 _ZNKSt10_List_baseIN12kyotocabinet7CacheDB7TranLogESaIS2_EE21_M_get_Node_allocatorEv@Base 1.2.31
 _ZNKSt10_List_baseIN12kyotocabinet7ProtoDBINSt3tr113unordered_mapISsSsNS2_4hashISsEESt8equal_toISsESaISt4pairIKSsSsEEEELh16EE7TranLogESaISE_EE19_M_get_Tp_allocatorEv@Base 1.2.31
 _ZNKSt10_List_baseIN12kyotocabinet7ProtoDBINSt3tr113unordered_mapISsSsNS2_4hashISsEESt8equal_toISsESaISt4pairIKSsSsEEEELh16EE7TranLogESaISE_EE21_M_get_Node_allocatorEv@Base 1.2.31
 _ZNKSt10_List_baseIN12kyotocabinet7ProtoDBISt3mapISsSsSt4lessISsESaISt4pairIKSsSsEEELh17EE7TranLogESaISB_EE19_M_get_Tp_allocatorEv@Base 1.2.31
 _ZNKSt10_List_baseIN12kyotocabinet7ProtoDBISt3mapISsSsSt4lessISsESaISt4pairIKSsSsEEELh17EE7TranLogESaISB_EE21_M_get_Node_allocatorEv@Base 1.2.31
 _ZNKSt10_List_baseIN12kyotocabinet7StashDB7TranLogESaIS2_EE19_M_get_Tp_allocatorEv@Base 1.2.31
 _ZNKSt10_List_baseIN12kyotocabinet7StashDB7TranLogESaIS2_EE21_M_get_Node_allocatorEv@Base 1.2.31
 _ZNKSt10_List_baseIPN12kyotocabinet5DirDB6CursorESaIS3_EE19_M_get_Tp_allocatorEv@Base 1.2.31
 _ZNKSt10_List_baseIPN12kyotocabinet5DirDB6CursorESaIS3_EE21_M_get_Node_allocatorEv@Base 1.2.31
 _ZNKSt10_List_baseIPN12kyotocabinet6HashDB6CursorESaIS3_EE19_M_get_Tp_allocatorEv@Base 1.2.31
 _ZNKSt10_List_baseIPN12kyotocabinet6HashDB6CursorESaIS3_EE21_M_get_Node_allocatorEv@Base 1.2.31
 _ZNKSt10_List_baseIPN12kyotocabinet7CacheDB6CursorESaIS3_EE19_M_get_Tp_allocatorEv@Base 1.2.31
 _ZNKSt10_List_baseIPN12kyotocabinet7CacheDB6CursorESaIS3_EE21_M_get_Node_allocatorEv@Base 1.2.31
 _ZNKSt10_List_baseIPN12kyotocabinet7PlantDBINS0_5DirDBELh65EE6CursorESaIS5_EE19_M_get_Tp_allocatorEv@Base 1.2.31
 _ZNKSt10_List_baseIPN12kyotocabinet7PlantDBINS0_5DirDBELh65EE6CursorESaIS5_EE21_M_get_Node_allocatorEv@Base 1.2.31
 _ZNKSt10_List_baseIPN12kyotocabinet7PlantDBINS0_6HashDBELh49EE6CursorESaIS5_EE19_M_get_Tp_allocatorEv@Base 1.2.31
 _ZNKSt10_List_baseIPN12kyotocabinet7PlantDBINS0_6HashDBELh49EE6CursorESaIS5_EE21_M_get_Node_allocatorEv@Base 1.2.31
 _ZNKSt10_List_baseIPN12kyotocabinet7PlantDBINS0_7CacheDBELh33EE6CursorESaIS5_EE19_M_get_Tp_allocatorEv@Base 1.2.31
 _ZNKSt10_List_baseIPN12kyotocabinet7PlantDBINS0_7CacheDBELh33EE6CursorESaIS5_EE21_M_get_Node_allocatorEv@Base 1.2.31
 _ZNKSt10_List_baseIPN12kyotocabinet7ProtoDBINSt3tr113unordered_mapISsSsNS2_4hashISsEESt8equal_toISsESaISt4pairIKSsSsEEEELh16EE6CursorESaISF_EE19_M_get_Tp_allocatorEv@Base 1.2.31
 _ZNKSt10_List_baseIPN12kyotocabinet7ProtoDBINSt3tr113unordered_mapISsSsNS2_4hashISsEESt8equal_toISsESaISt4pairIKSsSsEEEELh16EE6CursorESaISF_EE21_M_get_Node_allocatorEv@Base 1.2.31
 _ZNKSt10_List_baseIPN12kyotocabinet7ProtoDBISt3mapISsSsSt4lessISsESaISt4pairIKSsSsEEELh17EE6CursorESaISC_EE19_M_get_Tp_allocatorEv@Base 1.2.31
 _ZNKSt10_List_baseIPN12kyotocabinet7ProtoDBISt3mapISsSsSt4lessISsESaISt4pairIKSsSsEEELh17EE6CursorESaISC_EE21_M_get_Node_allocatorEv@Base 1.2.31
 _ZNKSt10_List_baseIPN12kyotocabinet7StashDB6CursorESaIS3_EE19_M_get_Tp_allocatorEv@Base 1.2.31
 _ZNKSt10_List_baseIPN12kyotocabinet7StashDB6CursorESaIS3_EE21_M_get_Node_allocatorEv@Base 1.2.31
 _ZNKSt10_Select1stISt4pairIKSsSsEEclERKS2_@Base 1.2.31
 _ZNKSt10_Select1stISt4pairIKSsSsEEclERS2_@Base 1.2.31
 _ZNKSt12_Vector_baseIN12kyotocabinet10WALMessageESaIS1_EE19_M_get_Tp_allocatorEv@Base 1.2.31
 _ZNKSt12_Vector_baseIN12kyotocabinet6PolyDB9MergeLineESaIS2_EE19_M_get_Tp_allocatorEv@Base 1.2.31
 _ZNKSt12_Vector_baseIPN12kyotocabinet7PlantDBINS0_5DirDBELh65EE4LinkESaIS5_EE19_M_get_Tp_allocatorEv@Base 1.2.31
 _ZNKSt12_Vector_baseIPN12kyotocabinet7PlantDBINS0_5DirDBELh65EE6RecordESaIS5_EE19_M_get_Tp_allocatorEv@Base 1.2.31
 _ZNKSt12_Vector_baseIPN12kyotocabinet7PlantDBINS0_6HashDBELh49EE4LinkESaIS5_EE19_M_get_Tp_allocatorEv@Base 1.2.31
 _ZNKSt12_Vector_baseIPN12kyotocabinet7PlantDBINS0_6HashDBELh49EE6RecordESaIS5_EE19_M_get_Tp_allocatorEv@Base 1.2.31
 _ZNKSt12_Vector_baseIPN12kyotocabinet7PlantDBINS0_7CacheDBELh33EE4LinkESaIS5_EE19_M_get_Tp_allocatorEv@Base 1.2.31
 _ZNKSt12_Vector_baseIPN12kyotocabinet7PlantDBINS0_7CacheDBELh33EE6RecordESaIS5_EE19_M_get_Tp_allocatorEv@Base 1.2.31
 _ZNKSt12_Vector_baseISsSaISsEE19_M_get_Tp_allocatorEv@Base 1.2.31
 _ZNKSt14_List_iteratorIPN12kyotocabinet5DirDB6CursorEEdeEv@Base 1.2.31
 _ZNKSt14_List_iteratorIPN12kyotocabinet5DirDB6CursorEEneERKS4_@Base 1.2.31
 _ZNKSt14_List_iteratorIPN12kyotocabinet6HashDB6CursorEEdeEv@Base 1.2.31
 _ZNKSt14_List_iteratorIPN12kyotocabinet6HashDB6CursorEEneERKS4_@Base 1.2.31
 _ZNKSt14_List_iteratorIPN12kyotocabinet7CacheDB6CursorEEdeEv@Base 1.2.31
 _ZNKSt14_List_iteratorIPN12kyotocabinet7CacheDB6CursorEEneERKS4_@Base 1.2.31
 _ZNKSt14_List_iteratorIPN12kyotocabinet7PlantDBINS0_5DirDBELh65EE6CursorEEdeEv@Base 1.2.31
 _ZNKSt14_List_iteratorIPN12kyotocabinet7PlantDBINS0_5DirDBELh65EE6CursorEEneERKS6_@Base 1.2.31
 _ZNKSt14_List_iteratorIPN12kyotocabinet7PlantDBINS0_6HashDBELh49EE6CursorEEdeEv@Base 1.2.31
 _ZNKSt14_List_iteratorIPN12kyotocabinet7PlantDBINS0_6HashDBELh49EE6CursorEEneERKS6_@Base 1.2.31
 _ZNKSt14_List_iteratorIPN12kyotocabinet7PlantDBINS0_7CacheDBELh33EE6CursorEEdeEv@Base 1.2.31
 _ZNKSt14_List_iteratorIPN12kyotocabinet7PlantDBINS0_7CacheDBELh33EE6CursorEEneERKS6_@Base 1.2.31
 _ZNKSt14_List_iteratorIPN12kyotocabinet7ProtoDBINSt3tr113unordered_mapISsSsNS2_4hashISsEESt8equal_toISsESaISt4pairIKSsSsEEEELh16EE6CursorEEdeEv@Base 1.2.31
 _ZNKSt14_List_iteratorIPN12kyotocabinet7ProtoDBINSt3tr113unordered_mapISsSsNS2_4hashISsEESt8equal_toISsESaISt4pairIKSsSsEEEELh16EE6CursorEEneERKSG_@Base 1.2.31
 _ZNKSt14_List_iteratorIPN12kyotocabinet7ProtoDBISt3mapISsSsSt4lessISsESaISt4pairIKSsSsEEELh17EE6CursorEEdeEv@Base 1.2.31
 _ZNKSt14_List_iteratorIPN12kyotocabinet7ProtoDBISt3mapISsSsSt4lessISsESaISt4pairIKSsSsEEELh17EE6CursorEEneERKSD_@Base 1.2.31
 _ZNKSt14_List_iteratorIPN12kyotocabinet7StashDB6CursorEEdeEv@Base 1.2.31
 _ZNKSt14_List_iteratorIPN12kyotocabinet7StashDB6CursorEEneERKS4_@Base 1.2.31
 _ZNKSt14priority_queueIN12kyotocabinet6PolyDB9MergeLineESt6vectorIS2_SaIS2_EESt4lessIS2_EE3topEv@Base 1.2.31
 _ZNKSt14priority_queueIN12kyotocabinet6PolyDB9MergeLineESt6vectorIS2_SaIS2_EESt4lessIS2_EE5emptyEv@Base 1.2.31
 _ZNKSt17_Rb_tree_iteratorIN12kyotocabinet6HashDB9FreeBlockEEeqERKS3_@Base 1.2.31
 _ZNKSt17_Rb_tree_iteratorISt4pairIKSsSsEEdeEv@Base 1.2.31
 _ZNKSt17_Rb_tree_iteratorISt4pairIKSsSsEEeqERKS3_@Base 1.2.31
 _ZNKSt17_Rb_tree_iteratorISt4pairIKSsSsEEneERKS3_@Base 1.2.31
 _ZNKSt17_Rb_tree_iteratorISt4pairIKSsSsEEptEv@Base 1.2.31
 _ZNKSt17_Rb_tree_iteratorIiEeqERKS0_@Base 1.2.31
 _ZNKSt17_Rb_tree_iteratorImEeqERKS0_@Base 1.2.31
 _ZNKSt20_List_const_iteratorIN12kyotocabinet7CacheDB7TranLogEEneERKS3_@Base 1.2.31
 _ZNKSt20_List_const_iteratorIN12kyotocabinet7CacheDB7TranLogEEptEv@Base 1.2.31
 _ZNKSt20_List_const_iteratorIN12kyotocabinet7ProtoDBINSt3tr113unordered_mapISsSsNS2_4hashISsEESt8equal_toISsESaISt4pairIKSsSsEEEELh16EE7TranLogEEneERKSF_@Base 1.2.31
 _ZNKSt20_List_const_iteratorIN12kyotocabinet7ProtoDBINSt3tr113unordered_mapISsSsNS2_4hashISsEESt8equal_toISsESaISt4pairIKSsSsEEEELh16EE7TranLogEEptEv@Base 1.2.31
 _ZNKSt20_List_const_iteratorIN12kyotocabinet7ProtoDBISt3mapISsSsSt4lessISsESaISt4pairIKSsSsEEELh17EE7TranLogEEneERKSC_@Base 1.2.31
 _ZNKSt20_List_const_iteratorIN12kyotocabinet7ProtoDBISt3mapISsSsSt4lessISsESaISt4pairIKSsSsEEELh17EE7TranLogEEptEv@Base 1.2.31
 _ZNKSt20_List_const_iteratorIN12kyotocabinet7StashDB7TranLogEEneERKS3_@Base 1.2.31
 _ZNKSt20_List_const_iteratorIN12kyotocabinet7StashDB7TranLogEEptEv@Base 1.2.31
 _ZNKSt20_List_const_iteratorIPN12kyotocabinet5DirDB6CursorEEdeEv@Base 1.2.31
 _ZNKSt20_List_const_iteratorIPN12kyotocabinet5DirDB6CursorEEneERKS4_@Base 1.2.31
 _ZNKSt20_List_const_iteratorIPN12kyotocabinet6HashDB6CursorEEdeEv@Base 1.2.31
 _ZNKSt20_List_const_iteratorIPN12kyotocabinet6HashDB6CursorEEneERKS4_@Base 1.2.31
 _ZNKSt20_List_const_iteratorIPN12kyotocabinet7CacheDB6CursorEEdeEv@Base 1.2.31
 _ZNKSt20_List_const_iteratorIPN12kyotocabinet7CacheDB6CursorEEneERKS4_@Base 1.2.31
 _ZNKSt20_List_const_iteratorIPN12kyotocabinet7PlantDBINS0_5DirDBELh65EE6CursorEEdeEv@Base 1.2.31
 _ZNKSt20_List_const_iteratorIPN12kyotocabinet7PlantDBINS0_5DirDBELh65EE6CursorEEneERKS6_@Base 1.2.31
 _ZNKSt20_List_const_iteratorIPN12kyotocabinet7PlantDBINS0_6HashDBELh49EE6CursorEEdeEv@Base 1.2.31
 _ZNKSt20_List_const_iteratorIPN12kyotocabinet7PlantDBINS0_6HashDBELh49EE6CursorEEneERKS6_@Base 1.2.31
 _ZNKSt20_List_const_iteratorIPN12kyotocabinet7PlantDBINS0_7CacheDBELh33EE6CursorEEdeEv@Base 1.2.31
 _ZNKSt20_List_const_iteratorIPN12kyotocabinet7PlantDBINS0_7CacheDBELh33EE6CursorEEneERKS6_@Base 1.2.31
 _ZNKSt20_List_const_iteratorIPN12kyotocabinet7ProtoDBINSt3tr113unordered_mapISsSsNS2_4hashISsEESt8equal_toISsESaISt4pairIKSsSsEEEELh16EE6CursorEEdeEv@Base 1.2.31
 _ZNKSt20_List_const_iteratorIPN12kyotocabinet7ProtoDBINSt3tr113unordered_mapISsSsNS2_4hashISsEESt8equal_toISsESaISt4pairIKSsSsEEEELh16EE6CursorEEneERKSG_@Base 1.2.31
 _ZNKSt20_List_const_iteratorIPN12kyotocabinet7ProtoDBISt3mapISsSsSt4lessISsESaISt4pairIKSsSsEEELh17EE6CursorEEdeEv@Base 1.2.31
 _ZNKSt20_List_const_iteratorIPN12kyotocabinet7ProtoDBISt3mapISsSsSt4lessISsESaISt4pairIKSsSsEEELh17EE6CursorEEneERKSD_@Base 1.2.31
 _ZNKSt20_List_const_iteratorIPN12kyotocabinet7StashDB6CursorEEdeEv@Base 1.2.31
 _ZNKSt20_List_const_iteratorIPN12kyotocabinet7StashDB6CursorEEneERKS4_@Base 1.2.31
 _ZNKSt23_Rb_tree_const_iteratorIN12kyotocabinet6HashDB9FreeBlockEEdeEv@Base 1.2.31
 _ZNKSt23_Rb_tree_const_iteratorIN12kyotocabinet6HashDB9FreeBlockEEeqERKS3_@Base 1.2.31
 _ZNKSt23_Rb_tree_const_iteratorIN12kyotocabinet6HashDB9FreeBlockEEneERKS3_@Base 1.2.31
 _ZNKSt23_Rb_tree_const_iteratorIN12kyotocabinet6HashDB9FreeBlockEEptEv@Base 1.2.31
 _ZNKSt23_Rb_tree_const_iteratorISt4pairIKSsSsEEeqERKS3_@Base 1.2.31
 _ZNKSt23_Rb_tree_const_iteratorISt4pairIKSsSsEEneERKS3_@Base 1.2.32
 _ZNKSt23_Rb_tree_const_iteratorISt4pairIKSsSsEEptEv@Base 1.2.31
 _ZNKSt23_Rb_tree_const_iteratorIiEdeEv@Base 1.2.31
 _ZNKSt23_Rb_tree_const_iteratorIiEneERKS0_@Base 1.2.31
 _ZNKSt23_Rb_tree_const_iteratorImEdeEv@Base 1.2.31
 _ZNKSt23_Rb_tree_const_iteratorImEneERKS0_@Base 1.2.31
 _ZNKSt3mapISsSsSt4lessISsESaISt4pairIKSsSsEEE3endEv@Base 1.2.31
 _ZNKSt3mapISsSsSt4lessISsESaISt4pairIKSsSsEEE4findERS3_@Base 1.2.31
 _ZNKSt3mapISsSsSt4lessISsESaISt4pairIKSsSsEEE4sizeEv@Base 1.2.31
 _ZNKSt3mapISsSsSt4lessISsESaISt4pairIKSsSsEEE5beginEv@Base 1.2.32
 _ZNKSt3mapISsSsSt4lessISsESaISt4pairIKSsSsEEE5countERS3_@Base 1.2.31
 _ZNKSt3mapISsSsSt4lessISsESaISt4pairIKSsSsEEE8key_compEv@Base 1.2.31
 _ZNKSt3setIN12kyotocabinet6HashDB9FreeBlockESt4lessIS2_ESaIS2_EE3endEv@Base 1.2.31
 _ZNKSt3setIN12kyotocabinet6HashDB9FreeBlockESt4lessIS2_ESaIS2_EE4sizeEv@Base 1.2.31
 _ZNKSt3setIN12kyotocabinet6HashDB9FreeBlockESt4lessIS2_ESaIS2_EE5beginEv@Base 1.2.31
 _ZNKSt3setIiSt4lessIiESaIiEE3endEv@Base 1.2.31
 _ZNKSt3setIiSt4lessIiESaIiEE5beginEv@Base 1.2.31
 _ZNKSt3setImSt4lessImESaImEE3endEv@Base 1.2.31
 _ZNKSt3setImSt4lessImESaImEE5beginEv@Base 1.2.31
 _ZNKSt3tr110_HashtableISsSt4pairIKSsSsESaIS3_ESt10_Select1stIS3_ESt8equal_toISsENS_4hashISsEENS_8__detail18_Mod_range_hashingENSB_20_Default_ranged_hashENSB_20_Prime_rehash_policyELb0ELb0ELb1EE12_M_find_nodeEPNSB_10_Hash_nodeIS3_Lb0EEERS2_m@Base 1.2.31
 _ZNKSt3tr110_HashtableISsSt4pairIKSsSsESaIS3_ESt10_Select1stIS3_ESt8equal_toISsENS_4hashISsEENS_8__detail18_Mod_range_hashingENSB_20_Default_ranged_hashENSB_20_Prime_rehash_policyELb0ELb0ELb1EE22_M_get_Value_allocatorEv@Base 1.2.31
 _ZNKSt3tr110_HashtableISsSt4pairIKSsSsESaIS3_ESt10_Select1stIS3_ESt8equal_toISsENS_4hashISsEENS_8__detail18_Mod_range_hashingENSB_20_Default_ranged_hashENSB_20_Prime_rehash_policyELb0ELb0ELb1EE3endEv@Base 1.2.31
 _ZNKSt3tr110_HashtableISsSt4pairIKSsSsESaIS3_ESt10_Select1stIS3_ESt8equal_toISsENS_4hashISsEENS_8__detail18_Mod_range_hashingENSB_20_Default_ranged_hashENSB_20_Prime_rehash_policyELb0ELb0ELb1EE4findERS2_@Base 1.2.31
 _ZNKSt3tr110_HashtableISsSt4pairIKSsSsESaIS3_ESt10_Select1stIS3_ESt8equal_toISsENS_4hashISsEENS_8__detail18_Mod_range_hashingENSB_20_Default_ranged_hashENSB_20_Prime_rehash_policyELb0ELb0ELb1EE4sizeEv@Base 1.2.31
 _ZNKSt3tr14hashIlEclEl@Base 1.2.31
 _ZNKSt3tr18__detail15_Hash_code_baseISsSt4pairIKSsSsESt10_Select1stIS4_ESt8equal_toISsENS_4hashISsEENS0_18_Mod_range_hashingENS0_20_Default_ranged_hashELb0EE10_M_compareERS3_mPNS0_10_Hash_nodeIS4_Lb0EEE@Base 1.2.31
 _ZNKSt3tr18__detail15_Hash_code_baseISsSt4pairIKSsSsESt10_Select1stIS4_ESt8equal_toISsENS_4hashISsEENS0_18_Mod_range_hashingENS0_20_Default_ranged_hashELb0EE12_M_hash_codeERS3_@Base 1.2.31
 _ZNKSt3tr18__detail15_Hash_code_baseISsSt4pairIKSsSsESt10_Select1stIS4_ESt8equal_toISsENS_4hashISsEENS0_18_Mod_range_hashingENS0_20_Default_ranged_hashELb0EE13_M_store_codeEPNS0_10_Hash_nodeIS4_Lb0EEEm@Base 1.2.31
 _ZNKSt3tr18__detail15_Hash_code_baseISsSt4pairIKSsSsESt10_Select1stIS4_ESt8equal_toISsENS_4hashISsEENS0_18_Mod_range_hashingENS0_20_Default_ranged_hashELb0EE15_M_bucket_indexEPKNS0_10_Hash_nodeIS4_Lb0EEEm@Base 1.2.31
 _ZNKSt3tr18__detail15_Hash_code_baseISsSt4pairIKSsSsESt10_Select1stIS4_ESt8equal_toISsENS_4hashISsEENS0_18_Mod_range_hashingENS0_20_Default_ranged_hashELb0EE15_M_bucket_indexERS3_mm@Base 1.2.31
 _ZNKSt3tr18__detail18_Mod_range_hashingclEmm@Base 1.2.31
 _ZNKSt3tr18__detail19_Hashtable_iteratorISt4pairIKSsSsELb0ELb0EEptEv@Base 1.2.31
 _ZNKSt3tr18__detail20_Prime_rehash_policy11_M_next_bktEm@Base 1.2.31
 _ZNKSt3tr18__detail20_Prime_rehash_policy14_M_need_rehashEmmm@Base 1.2.31
 _ZNKSt3tr18__detail20_Prime_rehash_policy19_M_bkt_for_elementsEm@Base 1.2.31
 _ZNKSt3tr18__detail25_Hashtable_const_iteratorISt4pairIKSsSsELb0ELb0EEptEv@Base 1.2.31
 _ZNKSt4lessIN12kyotocabinet6HashDB9FreeBlockEEclERKS2_S5_@Base 1.2.31
 _ZNKSt4lessIN12kyotocabinet6PolyDB9MergeLineEEclERKS2_S5_@Base 1.2.31
 _ZNKSt4lessISsEclERKSsS2_@Base 1.2.31
 _ZNKSt4lessIiEclERKiS2_@Base 1.2.31
 _ZNKSt4lessImEclERKmS2_@Base 1.2.31
 _ZNKSt4listIN12kyotocabinet7CacheDB7TranLogESaIS2_EE3endEv@Base 1.2.31
 _ZNKSt4listIN12kyotocabinet7CacheDB7TranLogESaIS2_EE5beginEv@Base 1.2.31
 _ZNKSt4listIN12kyotocabinet7ProtoDBINSt3tr113unordered_mapISsSsNS2_4hashISsEESt8equal_toISsESaISt4pairIKSsSsEEEELh16EE7TranLogESaISE_EE3endEv@Base 1.2.31
 _ZNKSt4listIN12kyotocabinet7ProtoDBINSt3tr113unordered_mapISsSsNS2_4hashISsEESt8equal_toISsESaISt4pairIKSsSsEEEELh16EE7TranLogESaISE_EE5beginEv@Base 1.2.31
 _ZNKSt4listIN12kyotocabinet7ProtoDBISt3mapISsSsSt4lessISsESaISt4pairIKSsSsEEELh17EE7TranLogESaISB_EE3endEv@Base 1.2.31
 _ZNKSt4listIN12kyotocabinet7ProtoDBISt3mapISsSsSt4lessISsESaISt4pairIKSsSsEEELh17EE7TranLogESaISB_EE5beginEv@Base 1.2.31
 _ZNKSt4listIPN12kyotocabinet5DirDB6CursorESaIS3_EE5emptyEv@Base 1.2.31
 _ZNKSt4listIPN12kyotocabinet6HashDB6CursorESaIS3_EE5emptyEv@Base 1.2.31
 _ZNKSt4listIPN12kyotocabinet7CacheDB6CursorESaIS3_EE5emptyEv@Base 1.2.31
 _ZNKSt4listIPN12kyotocabinet7PlantDBINS0_5DirDBELh65EE6CursorESaIS5_EE5emptyEv@Base 1.2.31
 _ZNKSt4listIPN12kyotocabinet7PlantDBINS0_6HashDBELh49EE6CursorESaIS5_EE5emptyEv@Base 1.2.31
 _ZNKSt4listIPN12kyotocabinet7PlantDBINS0_7CacheDBELh33EE6CursorESaIS5_EE5emptyEv@Base 1.2.31
 _ZNKSt4listIPN12kyotocabinet7ProtoDBINSt3tr113unordered_mapISsSsNS2_4hashISsEESt8equal_toISsESaISt4pairIKSsSsEEEELh16EE6CursorESaISF_EE3endEv@Base 1.2.31
 _ZNKSt4listIPN12kyotocabinet7ProtoDBINSt3tr113unordered_mapISsSsNS2_4hashISsEESt8equal_toISsESaISt4pairIKSsSsEEEELh16EE6CursorESaISF_EE4sizeEv@Base 1.2.31
 _ZNKSt4listIPN12kyotocabinet7ProtoDBINSt3tr113unordered_mapISsSsNS2_4hashISsEESt8equal_toISsESaISt4pairIKSsSsEEEELh16EE6CursorESaISF_EE5beginEv@Base 1.2.31
 _ZNKSt4listIPN12kyotocabinet7ProtoDBINSt3tr113unordered_mapISsSsNS2_4hashISsEESt8equal_toISsESaISt4pairIKSsSsEEEELh16EE6CursorESaISF_EE5emptyEv@Base 1.2.31
 _ZNKSt4listIPN12kyotocabinet7ProtoDBISt3mapISsSsSt4lessISsESaISt4pairIKSsSsEEELh17EE6CursorESaISC_EE3endEv@Base 1.2.31
 _ZNKSt4listIPN12kyotocabinet7ProtoDBISt3mapISsSsSt4lessISsESaISt4pairIKSsSsEEELh17EE6CursorESaISC_EE4sizeEv@Base 1.2.31
 _ZNKSt4listIPN12kyotocabinet7ProtoDBISt3mapISsSsSt4lessISsESaISt4pairIKSsSsEEELh17EE6CursorESaISC_EE5beginEv@Base 1.2.31
 _ZNKSt4listIPN12kyotocabinet7ProtoDBISt3mapISsSsSt4lessISsESaISt4pairIKSsSsEEELh17EE6CursorESaISC_EE5emptyEv@Base 1.2.31
 _ZNKSt4listIPN12kyotocabinet7StashDB6CursorESaIS3_EE5emptyEv@Base 1.2.31
 _ZNKSt6vectorIN12kyotocabinet10WALMessageESaIS1_EE12_M_check_lenEmPKc@Base 1.2.31
 _ZNKSt6vectorIN12kyotocabinet10WALMessageESaIS1_EE4sizeEv@Base 1.2.31
 _ZNKSt6vectorIN12kyotocabinet10WALMessageESaIS1_EE8max_sizeEv@Base 1.2.31
 _ZNKSt6vectorIN12kyotocabinet6PolyDB9MergeLineESaIS2_EE12_M_check_lenEmPKc@Base 1.2.31
 _ZNKSt6vectorIN12kyotocabinet6PolyDB9MergeLineESaIS2_EE3endEv@Base 1.2.31
 _ZNKSt6vectorIN12kyotocabinet6PolyDB9MergeLineESaIS2_EE4sizeEv@Base 1.2.31
 _ZNKSt6vectorIN12kyotocabinet6PolyDB9MergeLineESaIS2_EE5beginEv@Base 1.2.31
 _ZNKSt6vectorIN12kyotocabinet6PolyDB9MergeLineESaIS2_EE5emptyEv@Base 1.2.31
 _ZNKSt6vectorIN12kyotocabinet6PolyDB9MergeLineESaIS2_EE5frontEv@Base 1.2.31
 _ZNKSt6vectorIN12kyotocabinet6PolyDB9MergeLineESaIS2_EE8max_sizeEv@Base 1.2.31
 _ZNKSt6vectorIPN12kyotocabinet7PlantDBINS0_5DirDBELh65EE4LinkESaIS5_EE12_M_check_lenEmPKc@Base 1.2.31
 _ZNKSt6vectorIPN12kyotocabinet7PlantDBINS0_5DirDBELh65EE4LinkESaIS5_EE3endEv@Base 1.2.31
 _ZNKSt6vectorIPN12kyotocabinet7PlantDBINS0_5DirDBELh65EE4LinkESaIS5_EE4sizeEv@Base 1.2.31
 _ZNKSt6vectorIPN12kyotocabinet7PlantDBINS0_5DirDBELh65EE4LinkESaIS5_EE5beginEv@Base 1.2.31
 _ZNKSt6vectorIPN12kyotocabinet7PlantDBINS0_5DirDBELh65EE4LinkESaIS5_EE5emptyEv@Base 1.2.31
 _ZNKSt6vectorIPN12kyotocabinet7PlantDBINS0_5DirDBELh65EE4LinkESaIS5_EE8capacityEv@Base 1.2.31
 _ZNKSt6vectorIPN12kyotocabinet7PlantDBINS0_5DirDBELh65EE4LinkESaIS5_EE8max_sizeEv@Base 1.2.31
 _ZNKSt6vectorIPN12kyotocabinet7PlantDBINS0_5DirDBELh65EE6RecordESaIS5_EE12_M_check_lenEmPKc@Base 1.2.31
 _ZNKSt6vectorIPN12kyotocabinet7PlantDBINS0_5DirDBELh65EE6RecordESaIS5_EE3endEv@Base 1.2.31
 _ZNKSt6vectorIPN12kyotocabinet7PlantDBINS0_5DirDBELh65EE6RecordESaIS5_EE4sizeEv@Base 1.2.31
 _ZNKSt6vectorIPN12kyotocabinet7PlantDBINS0_5DirDBELh65EE6RecordESaIS5_EE5beginEv@Base 1.2.31
 _ZNKSt6vectorIPN12kyotocabinet7PlantDBINS0_5DirDBELh65EE6RecordESaIS5_EE5emptyEv@Base 1.2.31
 _ZNKSt6vectorIPN12kyotocabinet7PlantDBINS0_5DirDBELh65EE6RecordESaIS5_EE8capacityEv@Base 1.2.31
 _ZNKSt6vectorIPN12kyotocabinet7PlantDBINS0_5DirDBELh65EE6RecordESaIS5_EE8max_sizeEv@Base 1.2.31
 _ZNKSt6vectorIPN12kyotocabinet7PlantDBINS0_6HashDBELh49EE4LinkESaIS5_EE12_M_check_lenEmPKc@Base 1.2.31
 _ZNKSt6vectorIPN12kyotocabinet7PlantDBINS0_6HashDBELh49EE4LinkESaIS5_EE3endEv@Base 1.2.31
 _ZNKSt6vectorIPN12kyotocabinet7PlantDBINS0_6HashDBELh49EE4LinkESaIS5_EE4sizeEv@Base 1.2.31
 _ZNKSt6vectorIPN12kyotocabinet7PlantDBINS0_6HashDBELh49EE4LinkESaIS5_EE5beginEv@Base 1.2.31
 _ZNKSt6vectorIPN12kyotocabinet7PlantDBINS0_6HashDBELh49EE4LinkESaIS5_EE5emptyEv@Base 1.2.31
 _ZNKSt6vectorIPN12kyotocabinet7PlantDBINS0_6HashDBELh49EE4LinkESaIS5_EE8capacityEv@Base 1.2.31
 _ZNKSt6vectorIPN12kyotocabinet7PlantDBINS0_6HashDBELh49EE4LinkESaIS5_EE8max_sizeEv@Base 1.2.31
 _ZNKSt6vectorIPN12kyotocabinet7PlantDBINS0_6HashDBELh49EE6RecordESaIS5_EE12_M_check_lenEmPKc@Base 1.2.31
 _ZNKSt6vectorIPN12kyotocabinet7PlantDBINS0_6HashDBELh49EE6RecordESaIS5_EE3endEv@Base 1.2.31
 _ZNKSt6vectorIPN12kyotocabinet7PlantDBINS0_6HashDBELh49EE6RecordESaIS5_EE4sizeEv@Base 1.2.31
 _ZNKSt6vectorIPN12kyotocabinet7PlantDBINS0_6HashDBELh49EE6RecordESaIS5_EE5beginEv@Base 1.2.31
 _ZNKSt6vectorIPN12kyotocabinet7PlantDBINS0_6HashDBELh49EE6RecordESaIS5_EE5emptyEv@Base 1.2.31
 _ZNKSt6vectorIPN12kyotocabinet7PlantDBINS0_6HashDBELh49EE6RecordESaIS5_EE8capacityEv@Base 1.2.31
 _ZNKSt6vectorIPN12kyotocabinet7PlantDBINS0_6HashDBELh49EE6RecordESaIS5_EE8max_sizeEv@Base 1.2.31
 _ZNKSt6vectorIPN12kyotocabinet7PlantDBINS0_7CacheDBELh33EE4LinkESaIS5_EE12_M_check_lenEmPKc@Base 1.2.31
 _ZNKSt6vectorIPN12kyotocabinet7PlantDBINS0_7CacheDBELh33EE4LinkESaIS5_EE3endEv@Base 1.2.31
 _ZNKSt6vectorIPN12kyotocabinet7PlantDBINS0_7CacheDBELh33EE4LinkESaIS5_EE4sizeEv@Base 1.2.31
 _ZNKSt6vectorIPN12kyotocabinet7PlantDBINS0_7CacheDBELh33EE4LinkESaIS5_EE5beginEv@Base 1.2.31
 _ZNKSt6vectorIPN12kyotocabinet7PlantDBINS0_7CacheDBELh33EE4LinkESaIS5_EE5emptyEv@Base 1.2.31
 _ZNKSt6vectorIPN12kyotocabinet7PlantDBINS0_7CacheDBELh33EE4LinkESaIS5_EE8capacityEv@Base 1.2.31
 _ZNKSt6vectorIPN12kyotocabinet7PlantDBINS0_7CacheDBELh33EE4LinkESaIS5_EE8max_sizeEv@Base 1.2.31
 _ZNKSt6vectorIPN12kyotocabinet7PlantDBINS0_7CacheDBELh33EE6RecordESaIS5_EE12_M_check_lenEmPKc@Base 1.2.31
 _ZNKSt6vectorIPN12kyotocabinet7PlantDBINS0_7CacheDBELh33EE6RecordESaIS5_EE3endEv@Base 1.2.31
 _ZNKSt6vectorIPN12kyotocabinet7PlantDBINS0_7CacheDBELh33EE6RecordESaIS5_EE4sizeEv@Base 1.2.31
 _ZNKSt6vectorIPN12kyotocabinet7PlantDBINS0_7CacheDBELh33EE6RecordESaIS5_EE5beginEv@Base 1.2.31
 _ZNKSt6vectorIPN12kyotocabinet7PlantDBINS0_7CacheDBELh33EE6RecordESaIS5_EE5emptyEv@Base 1.2.31
 _ZNKSt6vectorIPN12kyotocabinet7PlantDBINS0_7CacheDBELh33EE6RecordESaIS5_EE8capacityEv@Base 1.2.31
 _ZNKSt6vectorIPN12kyotocabinet7PlantDBINS0_7CacheDBELh33EE6RecordESaIS5_EE8max_sizeEv@Base 1.2.31
 _ZNKSt6vectorISsSaISsEE12_M_check_lenEmPKc@Base 1.2.31
 _ZNKSt6vectorISsSaISsEE3endEv@Base 1.2.31
 _ZNKSt6vectorISsSaISsEE4sizeEv@Base 1.2.31
 _ZNKSt6vectorISsSaISsEE5beginEv@Base 1.2.31
 _ZNKSt6vectorISsSaISsEE5emptyEv@Base 1.2.31
 _ZNKSt6vectorISsSaISsEE8capacityEv@Base 1.2.32
 _ZNKSt6vectorISsSaISsEE8max_sizeEv@Base 1.2.31
 _ZNKSt6vectorISsSaISsEEixEm@Base 1.2.31
 _ZNKSt8_Rb_treeIN12kyotocabinet6HashDB9FreeBlockES2_St9_IdentityIS2_ESt4lessIS2_ESaIS2_EE13get_allocatorEv@Base 1.2.31
 _ZNKSt8_Rb_treeIN12kyotocabinet6HashDB9FreeBlockES2_St9_IdentityIS2_ESt4lessIS2_ESaIS2_EE21_M_get_Node_allocatorEv@Base 1.2.31
 _ZNKSt8_Rb_treeIN12kyotocabinet6HashDB9FreeBlockES2_St9_IdentityIS2_ESt4lessIS2_ESaIS2_EE3endEv@Base 1.2.31
 _ZNKSt8_Rb_treeIN12kyotocabinet6HashDB9FreeBlockES2_St9_IdentityIS2_ESt4lessIS2_ESaIS2_EE4sizeEv@Base 1.2.31
 _ZNKSt8_Rb_treeIN12kyotocabinet6HashDB9FreeBlockES2_St9_IdentityIS2_ESt4lessIS2_ESaIS2_EE5beginEv@Base 1.2.31
 _ZNKSt8_Rb_treeISsSt4pairIKSsSsESt10_Select1stIS2_ESt4lessISsESaIS2_EE13get_allocatorEv@Base 1.2.31
 _ZNKSt8_Rb_treeISsSt4pairIKSsSsESt10_Select1stIS2_ESt4lessISsESaIS2_EE14_M_lower_boundEPKSt13_Rb_tree_nodeIS2_ESC_RS1_@Base 1.2.31
 _ZNKSt8_Rb_treeISsSt4pairIKSsSsESt10_Select1stIS2_ESt4lessISsESaIS2_EE21_M_get_Node_allocatorEv@Base 1.2.31
 _ZNKSt8_Rb_treeISsSt4pairIKSsSsESt10_Select1stIS2_ESt4lessISsESaIS2_EE3endEv@Base 1.2.31
 _ZNKSt8_Rb_treeISsSt4pairIKSsSsESt10_Select1stIS2_ESt4lessISsESaIS2_EE4findERS1_@Base 1.2.31
 _ZNKSt8_Rb_treeISsSt4pairIKSsSsESt10_Select1stIS2_ESt4lessISsESaIS2_EE4sizeEv@Base 1.2.31
 _ZNKSt8_Rb_treeISsSt4pairIKSsSsESt10_Select1stIS2_ESt4lessISsESaIS2_EE5beginEv@Base 1.2.32
 _ZNKSt8_Rb_treeISsSt4pairIKSsSsESt10_Select1stIS2_ESt4lessISsESaIS2_EE6_M_endEv@Base 1.2.31
 _ZNKSt8_Rb_treeISsSt4pairIKSsSsESt10_Select1stIS2_ESt4lessISsESaIS2_EE8_M_beginEv@Base 1.2.31
 _ZNKSt8_Rb_treeISsSt4pairIKSsSsESt10_Select1stIS2_ESt4lessISsESaIS2_EE8key_compEv@Base 1.2.31
 _ZNKSt8_Rb_treeIiiSt9_IdentityIiESt4lessIiESaIiEE13get_allocatorEv@Base 1.2.31
 _ZNKSt8_Rb_treeIiiSt9_IdentityIiESt4lessIiESaIiEE21_M_get_Node_allocatorEv@Base 1.2.31
 _ZNKSt8_Rb_treeIiiSt9_IdentityIiESt4lessIiESaIiEE3endEv@Base 1.2.31
 _ZNKSt8_Rb_treeIiiSt9_IdentityIiESt4lessIiESaIiEE5beginEv@Base 1.2.31
 _ZNKSt8_Rb_treeImmSt9_IdentityImESt4lessImESaImEE13get_allocatorEv@Base 1.2.31
 _ZNKSt8_Rb_treeImmSt9_IdentityImESt4lessImESaImEE21_M_get_Node_allocatorEv@Base 1.2.31
 _ZNKSt8_Rb_treeImmSt9_IdentityImESt4lessImESaImEE3endEv@Base 1.2.31
 _ZNKSt8_Rb_treeImmSt9_IdentityImESt4lessImESaImEE5beginEv@Base 1.2.31
 _ZNKSt8equal_toISsEclERKSsS2_@Base 1.2.31
 _ZNKSt8equal_toIlEclERKlS2_@Base 1.2.31
 _ZNKSt9_IdentityIN12kyotocabinet6HashDB9FreeBlockEEclERKS2_@Base 1.2.31
 _ZNKSt9_IdentityIiEclERKi@Base 1.2.31
 _ZNKSt9_IdentityImEclERKm@Base 1.2.31
 _ZNSaIN12kyotocabinet10WALMessageEEC2Ev@Base 1.2.31
 _ZNSaIN12kyotocabinet10WALMessageEED2Ev@Base 1.2.31
 _ZNSaIN12kyotocabinet6HashDB9FreeBlockEEC1ISt13_Rb_tree_nodeIS1_EEERKSaIT_E@Base 1.2.31
 _ZNSaIN12kyotocabinet6HashDB9FreeBlockEED1Ev@Base 1.2.31
 _ZNSaIN12kyotocabinet6PolyDB9MergeLineEEC2ERKS2_@Base 1.2.31
 _ZNSaIN12kyotocabinet6PolyDB9MergeLineEEC2Ev@Base 1.2.31
 _ZNSaIN12kyotocabinet6PolyDB9MergeLineEED2Ev@Base 1.2.31
 _ZNSaIN12kyotocabinet7CacheDB7TranLogEEC1ISt10_List_nodeIS1_EEERKSaIT_E@Base 1.2.31
 _ZNSaIN12kyotocabinet7CacheDB7TranLogEED1Ev@Base 1.2.31
 _ZNSaIN12kyotocabinet7ProtoDBINSt3tr113unordered_mapISsSsNS1_4hashISsEESt8equal_toISsESaISt4pairIKSsSsEEEELh16EE7TranLogEEC1ISt10_List_nodeISD_EEERKSaIT_E@Base 1.2.31
 _ZNSaIN12kyotocabinet7ProtoDBINSt3tr113unordered_mapISsSsNS1_4hashISsEESt8equal_toISsESaISt4pairIKSsSsEEEELh16EE7TranLogEED1Ev@Base 1.2.31
 _ZNSaIN12kyotocabinet7ProtoDBISt3mapISsSsSt4lessISsESaISt4pairIKSsSsEEELh17EE7TranLogEEC1ISt10_List_nodeISA_EEERKSaIT_E@Base 1.2.31
 _ZNSaIN12kyotocabinet7ProtoDBISt3mapISsSsSt4lessISsESaISt4pairIKSsSsEEELh17EE7TranLogEED1Ev@Base 1.2.31
 _ZNSaIN12kyotocabinet7StashDB7TranLogEEC1ISt10_List_nodeIS1_EEERKSaIT_E@Base 1.2.31
 _ZNSaIN12kyotocabinet7StashDB7TranLogEED1Ev@Base 1.2.31
 _ZNSaINSt3tr18__detail10_Hash_nodeISt4pairIKSsSsELb0EEEEC1IS4_EERKSaIT_E@Base 1.2.31
 _ZNSaINSt3tr18__detail10_Hash_nodeISt4pairIKSsSsELb0EEEED1Ev@Base 1.2.31
 _ZNSaIPN12kyotocabinet5DirDB6CursorEEC1ISt10_List_nodeIS2_EEERKSaIT_E@Base 1.2.31
 _ZNSaIPN12kyotocabinet5DirDB6CursorEED1Ev@Base 1.2.31
 _ZNSaIPN12kyotocabinet6HashDB6CursorEEC1ISt10_List_nodeIS2_EEERKSaIT_E@Base 1.2.31
 _ZNSaIPN12kyotocabinet6HashDB6CursorEED1Ev@Base 1.2.31
 _ZNSaIPN12kyotocabinet7CacheDB6CursorEEC1ISt10_List_nodeIS2_EEERKSaIT_E@Base 1.2.31
 _ZNSaIPN12kyotocabinet7CacheDB6CursorEED1Ev@Base 1.2.31
 _ZNSaIPN12kyotocabinet7PlantDBINS_5DirDBELh65EE4LinkEEC2Ev@Base 1.2.31
 _ZNSaIPN12kyotocabinet7PlantDBINS_5DirDBELh65EE4LinkEED2Ev@Base 1.2.31
 _ZNSaIPN12kyotocabinet7PlantDBINS_5DirDBELh65EE6CursorEEC1ISt10_List_nodeIS4_EEERKSaIT_E@Base 1.2.31
 _ZNSaIPN12kyotocabinet7PlantDBINS_5DirDBELh65EE6CursorEED1Ev@Base 1.2.31
 _ZNSaIPN12kyotocabinet7PlantDBINS_5DirDBELh65EE6RecordEEC2Ev@Base 1.2.31
 _ZNSaIPN12kyotocabinet7PlantDBINS_5DirDBELh65EE6RecordEED2Ev@Base 1.2.31
 _ZNSaIPN12kyotocabinet7PlantDBINS_6HashDBELh49EE4LinkEEC2Ev@Base 1.2.31
 _ZNSaIPN12kyotocabinet7PlantDBINS_6HashDBELh49EE4LinkEED2Ev@Base 1.2.31
 _ZNSaIPN12kyotocabinet7PlantDBINS_6HashDBELh49EE6CursorEEC1ISt10_List_nodeIS4_EEERKSaIT_E@Base 1.2.31
 _ZNSaIPN12kyotocabinet7PlantDBINS_6HashDBELh49EE6CursorEED1Ev@Base 1.2.31
 _ZNSaIPN12kyotocabinet7PlantDBINS_6HashDBELh49EE6RecordEEC2Ev@Base 1.2.31
 _ZNSaIPN12kyotocabinet7PlantDBINS_6HashDBELh49EE6RecordEED2Ev@Base 1.2.31
 _ZNSaIPN12kyotocabinet7PlantDBINS_7CacheDBELh33EE4LinkEEC2Ev@Base 1.2.31
 _ZNSaIPN12kyotocabinet7PlantDBINS_7CacheDBELh33EE4LinkEED2Ev@Base 1.2.31
 _ZNSaIPN12kyotocabinet7PlantDBINS_7CacheDBELh33EE6CursorEEC1ISt10_List_nodeIS4_EEERKSaIT_E@Base 1.2.31
 _ZNSaIPN12kyotocabinet7PlantDBINS_7CacheDBELh33EE6CursorEED1Ev@Base 1.2.31
 _ZNSaIPN12kyotocabinet7PlantDBINS_7CacheDBELh33EE6RecordEEC2Ev@Base 1.2.31
 _ZNSaIPN12kyotocabinet7PlantDBINS_7CacheDBELh33EE6RecordEED2Ev@Base 1.2.31
 _ZNSaIPN12kyotocabinet7ProtoDBINSt3tr113unordered_mapISsSsNS1_4hashISsEESt8equal_toISsESaISt4pairIKSsSsEEEELh16EE6CursorEEC1ISt10_List_nodeISE_EEERKSaIT_E@Base 1.2.31
 _ZNSaIPN12kyotocabinet7ProtoDBINSt3tr113unordered_mapISsSsNS1_4hashISsEESt8equal_toISsESaISt4pairIKSsSsEEEELh16EE6CursorEED1Ev@Base 1.2.31
 _ZNSaIPN12kyotocabinet7ProtoDBISt3mapISsSsSt4lessISsESaISt4pairIKSsSsEEELh17EE6CursorEEC1ISt10_List_nodeISB_EEERKSaIT_E@Base 1.2.31
 _ZNSaIPN12kyotocabinet7ProtoDBISt3mapISsSsSt4lessISsESaISt4pairIKSsSsEEELh17EE6CursorEED1Ev@Base 1.2.31
 _ZNSaIPN12kyotocabinet7StashDB6CursorEEC1ISt10_List_nodeIS2_EEERKSaIT_E@Base 1.2.31
 _ZNSaIPN12kyotocabinet7StashDB6CursorEED1Ev@Base 1.2.31
 _ZNSaIPNSt3tr18__detail10_Hash_nodeISt4pairIKSsSsELb0EEEEC1IS5_EERKSaIT_E@Base 1.2.31
 _ZNSaIPNSt3tr18__detail10_Hash_nodeISt4pairIKSsSsELb0EEEED1Ev@Base 1.2.31
 _ZNSaISsEC2Ev@Base 1.2.31
 _ZNSaISsED2Ev@Base 1.2.31
 _ZNSaISt10_List_nodeIN12kyotocabinet7CacheDB7TranLogEEEC2Ev@Base 1.2.31
 _ZNSaISt10_List_nodeIN12kyotocabinet7CacheDB7TranLogEEED2Ev@Base 1.2.31
 _ZNSaISt10_List_nodeIN12kyotocabinet7ProtoDBINSt3tr113unordered_mapISsSsNS2_4hashISsEESt8equal_toISsESaISt4pairIKSsSsEEEELh16EE7TranLogEEEC2Ev@Base 1.2.31
 _ZNSaISt10_List_nodeIN12kyotocabinet7ProtoDBINSt3tr113unordered_mapISsSsNS2_4hashISsEESt8equal_toISsESaISt4pairIKSsSsEEEELh16EE7TranLogEEED2Ev@Base 1.2.31
 _ZNSaISt10_List_nodeIN12kyotocabinet7ProtoDBISt3mapISsSsSt4lessISsESaISt4pairIKSsSsEEELh17EE7TranLogEEEC2Ev@Base 1.2.31
 _ZNSaISt10_List_nodeIN12kyotocabinet7ProtoDBISt3mapISsSsSt4lessISsESaISt4pairIKSsSsEEELh17EE7TranLogEEED2Ev@Base 1.2.31
 _ZNSaISt10_List_nodeIN12kyotocabinet7StashDB7TranLogEEEC2Ev@Base 1.2.31
 _ZNSaISt10_List_nodeIN12kyotocabinet7StashDB7TranLogEEED2Ev@Base 1.2.31
 _ZNSaISt10_List_nodeIPN12kyotocabinet5DirDB6CursorEEEC2Ev@Base 1.2.31
 _ZNSaISt10_List_nodeIPN12kyotocabinet5DirDB6CursorEEED2Ev@Base 1.2.31
 _ZNSaISt10_List_nodeIPN12kyotocabinet6HashDB6CursorEEEC2Ev@Base 1.2.31
 _ZNSaISt10_List_nodeIPN12kyotocabinet6HashDB6CursorEEED2Ev@Base 1.2.31
 _ZNSaISt10_List_nodeIPN12kyotocabinet7CacheDB6CursorEEEC2Ev@Base 1.2.31
 _ZNSaISt10_List_nodeIPN12kyotocabinet7CacheDB6CursorEEED2Ev@Base 1.2.31
 _ZNSaISt10_List_nodeIPN12kyotocabinet7PlantDBINS0_5DirDBELh65EE6CursorEEEC2Ev@Base 1.2.31
 _ZNSaISt10_List_nodeIPN12kyotocabinet7PlantDBINS0_5DirDBELh65EE6CursorEEED2Ev@Base 1.2.31
 _ZNSaISt10_List_nodeIPN12kyotocabinet7PlantDBINS0_6HashDBELh49EE6CursorEEEC2Ev@Base 1.2.31
 _ZNSaISt10_List_nodeIPN12kyotocabinet7PlantDBINS0_6HashDBELh49EE6CursorEEED2Ev@Base 1.2.31
 _ZNSaISt10_List_nodeIPN12kyotocabinet7PlantDBINS0_7CacheDBELh33EE6CursorEEEC2Ev@Base 1.2.31
 _ZNSaISt10_List_nodeIPN12kyotocabinet7PlantDBINS0_7CacheDBELh33EE6CursorEEED2Ev@Base 1.2.31
 _ZNSaISt10_List_nodeIPN12kyotocabinet7ProtoDBINSt3tr113unordered_mapISsSsNS2_4hashISsEESt8equal_toISsESaISt4pairIKSsSsEEEELh16EE6CursorEEEC2Ev@Base 1.2.31
 _ZNSaISt10_List_nodeIPN12kyotocabinet7ProtoDBINSt3tr113unordered_mapISsSsNS2_4hashISsEESt8equal_toISsESaISt4pairIKSsSsEEEELh16EE6CursorEEED2Ev@Base 1.2.31
 _ZNSaISt10_List_nodeIPN12kyotocabinet7ProtoDBISt3mapISsSsSt4lessISsESaISt4pairIKSsSsEEELh17EE6CursorEEEC2Ev@Base 1.2.31
 _ZNSaISt10_List_nodeIPN12kyotocabinet7ProtoDBISt3mapISsSsSt4lessISsESaISt4pairIKSsSsEEELh17EE6CursorEEED2Ev@Base 1.2.31
 _ZNSaISt10_List_nodeIPN12kyotocabinet7StashDB6CursorEEEC2Ev@Base 1.2.31
 _ZNSaISt10_List_nodeIPN12kyotocabinet7StashDB6CursorEEED2Ev@Base 1.2.31
 _ZNSaISt13_Rb_tree_nodeIN12kyotocabinet6HashDB9FreeBlockEEEC2Ev@Base 1.2.31
 _ZNSaISt13_Rb_tree_nodeIN12kyotocabinet6HashDB9FreeBlockEEED2Ev@Base 1.2.31
 _ZNSaISt13_Rb_tree_nodeISt4pairIKSsSsEEEC2Ev@Base 1.2.31
 _ZNSaISt13_Rb_tree_nodeISt4pairIKSsSsEEED2Ev@Base 1.2.31
 _ZNSaISt13_Rb_tree_nodeIiEEC2Ev@Base 1.2.31
 _ZNSaISt13_Rb_tree_nodeIiEED2Ev@Base 1.2.31
 _ZNSaISt13_Rb_tree_nodeImEEC2Ev@Base 1.2.31
 _ZNSaISt13_Rb_tree_nodeImEED2Ev@Base 1.2.31
 _ZNSaISt4pairIKSsSsEEC1Ev@Base 1.2.31
 _ZNSaISt4pairIKSsSsEEC1INSt3tr18__detail10_Hash_nodeIS1_Lb0EEEEERKSaIT_E@Base 1.2.31
 _ZNSaISt4pairIKSsSsEEC1ISt13_Rb_tree_nodeIS1_EEERKSaIT_E@Base 1.2.31
 _ZNSaISt4pairIKSsSsEED1Ev@Base 1.2.31
 _ZNSaIiEC1ISt13_Rb_tree_nodeIiEEERKSaIT_E@Base 1.2.31
 _ZNSaIiED1Ev@Base 1.2.31
 _ZNSaImEC1ISt13_Rb_tree_nodeImEEERKSaIT_E@Base 1.2.31
 _ZNSaImED1Ev@Base 1.2.31
 _ZNSs12_S_constructIN9__gnu_cxx17__normal_iteratorIPKcSsEEEEPcT_S6_RKSaIcE@Base 1.2.31
 _ZNSs12_S_constructIN9__gnu_cxx17__normal_iteratorIPKcSsEEEEPcT_S6_RKSaIcESt20forward_iterator_tag@Base 1.2.31
 _ZNSs16_S_construct_auxIN9__gnu_cxx17__normal_iteratorIPKcSsEEEEPcT_S6_RKSaIcESt12__false_type@Base 1.2.31
 _ZNSsC1IN9__gnu_cxx17__normal_iteratorIPKcSsEEEET_S5_RKSaIcE@Base 1.2.31
 _ZNSt10_List_baseIN12kyotocabinet7CacheDB7TranLogESaIS2_EE10_List_implC1Ev@Base 1.2.31
 _ZNSt10_List_baseIN12kyotocabinet7CacheDB7TranLogESaIS2_EE10_List_implD1Ev@Base 1.2.31
 _ZNSt10_List_baseIN12kyotocabinet7CacheDB7TranLogESaIS2_EE11_M_get_nodeEv@Base 1.2.31
 _ZNSt10_List_baseIN12kyotocabinet7CacheDB7TranLogESaIS2_EE11_M_put_nodeEPSt10_List_nodeIS2_E@Base 1.2.31
 _ZNSt10_List_baseIN12kyotocabinet7CacheDB7TranLogESaIS2_EE7_M_initEv@Base 1.2.31
 _ZNSt10_List_baseIN12kyotocabinet7CacheDB7TranLogESaIS2_EE8_M_clearEv@Base 1.2.31
 _ZNSt10_List_baseIN12kyotocabinet7CacheDB7TranLogESaIS2_EEC2Ev@Base 1.2.31
 _ZNSt10_List_baseIN12kyotocabinet7CacheDB7TranLogESaIS2_EED2Ev@Base 1.2.31
 _ZNSt10_List_baseIN12kyotocabinet7ProtoDBINSt3tr113unordered_mapISsSsNS2_4hashISsEESt8equal_toISsESaISt4pairIKSsSsEEEELh16EE7TranLogESaISE_EE10_List_implC1Ev@Base 1.2.31
 _ZNSt10_List_baseIN12kyotocabinet7ProtoDBINSt3tr113unordered_mapISsSsNS2_4hashISsEESt8equal_toISsESaISt4pairIKSsSsEEEELh16EE7TranLogESaISE_EE10_List_implD1Ev@Base 1.2.31
 _ZNSt10_List_baseIN12kyotocabinet7ProtoDBINSt3tr113unordered_mapISsSsNS2_4hashISsEESt8equal_toISsESaISt4pairIKSsSsEEEELh16EE7TranLogESaISE_EE11_M_get_nodeEv@Base 1.2.31
 _ZNSt10_List_baseIN12kyotocabinet7ProtoDBINSt3tr113unordered_mapISsSsNS2_4hashISsEESt8equal_toISsESaISt4pairIKSsSsEEEELh16EE7TranLogESaISE_EE11_M_put_nodeEPSt10_List_nodeISE_E@Base 1.2.31
 _ZNSt10_List_baseIN12kyotocabinet7ProtoDBINSt3tr113unordered_mapISsSsNS2_4hashISsEESt8equal_toISsESaISt4pairIKSsSsEEEELh16EE7TranLogESaISE_EE7_M_initEv@Base 1.2.31
 _ZNSt10_List_baseIN12kyotocabinet7ProtoDBINSt3tr113unordered_mapISsSsNS2_4hashISsEESt8equal_toISsESaISt4pairIKSsSsEEEELh16EE7TranLogESaISE_EE8_M_clearEv@Base 1.2.31
 _ZNSt10_List_baseIN12kyotocabinet7ProtoDBINSt3tr113unordered_mapISsSsNS2_4hashISsEESt8equal_toISsESaISt4pairIKSsSsEEEELh16EE7TranLogESaISE_EEC2Ev@Base 1.2.31
 _ZNSt10_List_baseIN12kyotocabinet7ProtoDBINSt3tr113unordered_mapISsSsNS2_4hashISsEESt8equal_toISsESaISt4pairIKSsSsEEEELh16EE7TranLogESaISE_EED2Ev@Base 1.2.31
 _ZNSt10_List_baseIN12kyotocabinet7ProtoDBISt3mapISsSsSt4lessISsESaISt4pairIKSsSsEEELh17EE7TranLogESaISB_EE10_List_implC1Ev@Base 1.2.31
 _ZNSt10_List_baseIN12kyotocabinet7ProtoDBISt3mapISsSsSt4lessISsESaISt4pairIKSsSsEEELh17EE7TranLogESaISB_EE10_List_implD1Ev@Base 1.2.31
 _ZNSt10_List_baseIN12kyotocabinet7ProtoDBISt3mapISsSsSt4lessISsESaISt4pairIKSsSsEEELh17EE7TranLogESaISB_EE11_M_get_nodeEv@Base 1.2.31
 _ZNSt10_List_baseIN12kyotocabinet7ProtoDBISt3mapISsSsSt4lessISsESaISt4pairIKSsSsEEELh17EE7TranLogESaISB_EE11_M_put_nodeEPSt10_List_nodeISB_E@Base 1.2.31
 _ZNSt10_List_baseIN12kyotocabinet7ProtoDBISt3mapISsSsSt4lessISsESaISt4pairIKSsSsEEELh17EE7TranLogESaISB_EE7_M_initEv@Base 1.2.31
 _ZNSt10_List_baseIN12kyotocabinet7ProtoDBISt3mapISsSsSt4lessISsESaISt4pairIKSsSsEEELh17EE7TranLogESaISB_EE8_M_clearEv@Base 1.2.31
 _ZNSt10_List_baseIN12kyotocabinet7ProtoDBISt3mapISsSsSt4lessISsESaISt4pairIKSsSsEEELh17EE7TranLogESaISB_EEC2Ev@Base 1.2.31
 _ZNSt10_List_baseIN12kyotocabinet7ProtoDBISt3mapISsSsSt4lessISsESaISt4pairIKSsSsEEELh17EE7TranLogESaISB_EED2Ev@Base 1.2.31
 _ZNSt10_List_baseIN12kyotocabinet7StashDB7TranLogESaIS2_EE10_List_implC1Ev@Base 1.2.31
 _ZNSt10_List_baseIN12kyotocabinet7StashDB7TranLogESaIS2_EE10_List_implD1Ev@Base 1.2.31
 _ZNSt10_List_baseIN12kyotocabinet7StashDB7TranLogESaIS2_EE11_M_get_nodeEv@Base 1.2.31
 _ZNSt10_List_baseIN12kyotocabinet7StashDB7TranLogESaIS2_EE11_M_put_nodeEPSt10_List_nodeIS2_E@Base 1.2.31
 _ZNSt10_List_baseIN12kyotocabinet7StashDB7TranLogESaIS2_EE7_M_initEv@Base 1.2.31
 _ZNSt10_List_baseIN12kyotocabinet7StashDB7TranLogESaIS2_EE8_M_clearEv@Base 1.2.31
 _ZNSt10_List_baseIN12kyotocabinet7StashDB7TranLogESaIS2_EEC2Ev@Base 1.2.31
 _ZNSt10_List_baseIN12kyotocabinet7StashDB7TranLogESaIS2_EED2Ev@Base 1.2.31
 _ZNSt10_List_baseIPN12kyotocabinet5DirDB6CursorESaIS3_EE10_List_implC1Ev@Base 1.2.31
 _ZNSt10_List_baseIPN12kyotocabinet5DirDB6CursorESaIS3_EE10_List_implD1Ev@Base 1.2.31
 _ZNSt10_List_baseIPN12kyotocabinet5DirDB6CursorESaIS3_EE11_M_get_nodeEv@Base 1.2.31
 _ZNSt10_List_baseIPN12kyotocabinet5DirDB6CursorESaIS3_EE11_M_put_nodeEPSt10_List_nodeIS3_E@Base 1.2.31
 _ZNSt10_List_baseIPN12kyotocabinet5DirDB6CursorESaIS3_EE7_M_initEv@Base 1.2.31
 _ZNSt10_List_baseIPN12kyotocabinet5DirDB6CursorESaIS3_EE8_M_clearEv@Base 1.2.31
 _ZNSt10_List_baseIPN12kyotocabinet5DirDB6CursorESaIS3_EEC2Ev@Base 1.2.31
 _ZNSt10_List_baseIPN12kyotocabinet5DirDB6CursorESaIS3_EED2Ev@Base 1.2.31
 _ZNSt10_List_baseIPN12kyotocabinet6HashDB6CursorESaIS3_EE10_List_implC1Ev@Base 1.2.31
 _ZNSt10_List_baseIPN12kyotocabinet6HashDB6CursorESaIS3_EE10_List_implD1Ev@Base 1.2.31
 _ZNSt10_List_baseIPN12kyotocabinet6HashDB6CursorESaIS3_EE11_M_get_nodeEv@Base 1.2.31
 _ZNSt10_List_baseIPN12kyotocabinet6HashDB6CursorESaIS3_EE11_M_put_nodeEPSt10_List_nodeIS3_E@Base 1.2.31
 _ZNSt10_List_baseIPN12kyotocabinet6HashDB6CursorESaIS3_EE7_M_initEv@Base 1.2.31
 _ZNSt10_List_baseIPN12kyotocabinet6HashDB6CursorESaIS3_EE8_M_clearEv@Base 1.2.31
 _ZNSt10_List_baseIPN12kyotocabinet6HashDB6CursorESaIS3_EEC2Ev@Base 1.2.31
 _ZNSt10_List_baseIPN12kyotocabinet6HashDB6CursorESaIS3_EED2Ev@Base 1.2.31
 _ZNSt10_List_baseIPN12kyotocabinet7CacheDB6CursorESaIS3_EE10_List_implC1Ev@Base 1.2.31
 _ZNSt10_List_baseIPN12kyotocabinet7CacheDB6CursorESaIS3_EE10_List_implD1Ev@Base 1.2.31
 _ZNSt10_List_baseIPN12kyotocabinet7CacheDB6CursorESaIS3_EE11_M_get_nodeEv@Base 1.2.31
 _ZNSt10_List_baseIPN12kyotocabinet7CacheDB6CursorESaIS3_EE11_M_put_nodeEPSt10_List_nodeIS3_E@Base 1.2.31
 _ZNSt10_List_baseIPN12kyotocabinet7CacheDB6CursorESaIS3_EE7_M_initEv@Base 1.2.31
 _ZNSt10_List_baseIPN12kyotocabinet7CacheDB6CursorESaIS3_EE8_M_clearEv@Base 1.2.31
 _ZNSt10_List_baseIPN12kyotocabinet7CacheDB6CursorESaIS3_EEC2Ev@Base 1.2.31
 _ZNSt10_List_baseIPN12kyotocabinet7CacheDB6CursorESaIS3_EED2Ev@Base 1.2.31
 _ZNSt10_List_baseIPN12kyotocabinet7PlantDBINS0_5DirDBELh65EE6CursorESaIS5_EE10_List_implC1Ev@Base 1.2.31
 _ZNSt10_List_baseIPN12kyotocabinet7PlantDBINS0_5DirDBELh65EE6CursorESaIS5_EE10_List_implD1Ev@Base 1.2.31
 _ZNSt10_List_baseIPN12kyotocabinet7PlantDBINS0_5DirDBELh65EE6CursorESaIS5_EE11_M_get_nodeEv@Base 1.2.31
 _ZNSt10_List_baseIPN12kyotocabinet7PlantDBINS0_5DirDBELh65EE6CursorESaIS5_EE11_M_put_nodeEPSt10_List_nodeIS5_E@Base 1.2.31
 _ZNSt10_List_baseIPN12kyotocabinet7PlantDBINS0_5DirDBELh65EE6CursorESaIS5_EE7_M_initEv@Base 1.2.31
 _ZNSt10_List_baseIPN12kyotocabinet7PlantDBINS0_5DirDBELh65EE6CursorESaIS5_EE8_M_clearEv@Base 1.2.31
 _ZNSt10_List_baseIPN12kyotocabinet7PlantDBINS0_5DirDBELh65EE6CursorESaIS5_EEC2Ev@Base 1.2.31
 _ZNSt10_List_baseIPN12kyotocabinet7PlantDBINS0_5DirDBELh65EE6CursorESaIS5_EED2Ev@Base 1.2.31
 _ZNSt10_List_baseIPN12kyotocabinet7PlantDBINS0_6HashDBELh49EE6CursorESaIS5_EE10_List_implC1Ev@Base 1.2.31
 _ZNSt10_List_baseIPN12kyotocabinet7PlantDBINS0_6HashDBELh49EE6CursorESaIS5_EE10_List_implD1Ev@Base 1.2.31
 _ZNSt10_List_baseIPN12kyotocabinet7PlantDBINS0_6HashDBELh49EE6CursorESaIS5_EE11_M_get_nodeEv@Base 1.2.31
 _ZNSt10_List_baseIPN12kyotocabinet7PlantDBINS0_6HashDBELh49EE6CursorESaIS5_EE11_M_put_nodeEPSt10_List_nodeIS5_E@Base 1.2.31
 _ZNSt10_List_baseIPN12kyotocabinet7PlantDBINS0_6HashDBELh49EE6CursorESaIS5_EE7_M_initEv@Base 1.2.31
 _ZNSt10_List_baseIPN12kyotocabinet7PlantDBINS0_6HashDBELh49EE6CursorESaIS5_EE8_M_clearEv@Base 1.2.31
 _ZNSt10_List_baseIPN12kyotocabinet7PlantDBINS0_6HashDBELh49EE6CursorESaIS5_EEC2Ev@Base 1.2.31
 _ZNSt10_List_baseIPN12kyotocabinet7PlantDBINS0_6HashDBELh49EE6CursorESaIS5_EED2Ev@Base 1.2.31
 _ZNSt10_List_baseIPN12kyotocabinet7PlantDBINS0_7CacheDBELh33EE6CursorESaIS5_EE10_List_implC1Ev@Base 1.2.31
 _ZNSt10_List_baseIPN12kyotocabinet7PlantDBINS0_7CacheDBELh33EE6CursorESaIS5_EE10_List_implD1Ev@Base 1.2.31
 _ZNSt10_List_baseIPN12kyotocabinet7PlantDBINS0_7CacheDBELh33EE6CursorESaIS5_EE11_M_get_nodeEv@Base 1.2.31
 _ZNSt10_List_baseIPN12kyotocabinet7PlantDBINS0_7CacheDBELh33EE6CursorESaIS5_EE11_M_put_nodeEPSt10_List_nodeIS5_E@Base 1.2.31
 _ZNSt10_List_baseIPN12kyotocabinet7PlantDBINS0_7CacheDBELh33EE6CursorESaIS5_EE7_M_initEv@Base 1.2.31
 _ZNSt10_List_baseIPN12kyotocabinet7PlantDBINS0_7CacheDBELh33EE6CursorESaIS5_EE8_M_clearEv@Base 1.2.31
 _ZNSt10_List_baseIPN12kyotocabinet7PlantDBINS0_7CacheDBELh33EE6CursorESaIS5_EEC2Ev@Base 1.2.31
 _ZNSt10_List_baseIPN12kyotocabinet7PlantDBINS0_7CacheDBELh33EE6CursorESaIS5_EED2Ev@Base 1.2.31
 _ZNSt10_List_baseIPN12kyotocabinet7ProtoDBINSt3tr113unordered_mapISsSsNS2_4hashISsEESt8equal_toISsESaISt4pairIKSsSsEEEELh16EE6CursorESaISF_EE10_List_implC1Ev@Base 1.2.31
 _ZNSt10_List_baseIPN12kyotocabinet7ProtoDBINSt3tr113unordered_mapISsSsNS2_4hashISsEESt8equal_toISsESaISt4pairIKSsSsEEEELh16EE6CursorESaISF_EE10_List_implD1Ev@Base 1.2.31
 _ZNSt10_List_baseIPN12kyotocabinet7ProtoDBINSt3tr113unordered_mapISsSsNS2_4hashISsEESt8equal_toISsESaISt4pairIKSsSsEEEELh16EE6CursorESaISF_EE11_M_get_nodeEv@Base 1.2.31
 _ZNSt10_List_baseIPN12kyotocabinet7ProtoDBINSt3tr113unordered_mapISsSsNS2_4hashISsEESt8equal_toISsESaISt4pairIKSsSsEEEELh16EE6CursorESaISF_EE11_M_put_nodeEPSt10_List_nodeISF_E@Base 1.2.31
 _ZNSt10_List_baseIPN12kyotocabinet7ProtoDBINSt3tr113unordered_mapISsSsNS2_4hashISsEESt8equal_toISsESaISt4pairIKSsSsEEEELh16EE6CursorESaISF_EE7_M_initEv@Base 1.2.31
 _ZNSt10_List_baseIPN12kyotocabinet7ProtoDBINSt3tr113unordered_mapISsSsNS2_4hashISsEESt8equal_toISsESaISt4pairIKSsSsEEEELh16EE6CursorESaISF_EE8_M_clearEv@Base 1.2.31
 _ZNSt10_List_baseIPN12kyotocabinet7ProtoDBINSt3tr113unordered_mapISsSsNS2_4hashISsEESt8equal_toISsESaISt4pairIKSsSsEEEELh16EE6CursorESaISF_EEC2Ev@Base 1.2.31
 _ZNSt10_List_baseIPN12kyotocabinet7ProtoDBINSt3tr113unordered_mapISsSsNS2_4hashISsEESt8equal_toISsESaISt4pairIKSsSsEEEELh16EE6CursorESaISF_EED2Ev@Base 1.2.31
 _ZNSt10_List_baseIPN12kyotocabinet7ProtoDBISt3mapISsSsSt4lessISsESaISt4pairIKSsSsEEELh17EE6CursorESaISC_EE10_List_implC1Ev@Base 1.2.31
 _ZNSt10_List_baseIPN12kyotocabinet7ProtoDBISt3mapISsSsSt4lessISsESaISt4pairIKSsSsEEELh17EE6CursorESaISC_EE10_List_implD1Ev@Base 1.2.31
 _ZNSt10_List_baseIPN12kyotocabinet7ProtoDBISt3mapISsSsSt4lessISsESaISt4pairIKSsSsEEELh17EE6CursorESaISC_EE11_M_get_nodeEv@Base 1.2.31
 _ZNSt10_List_baseIPN12kyotocabinet7ProtoDBISt3mapISsSsSt4lessISsESaISt4pairIKSsSsEEELh17EE6CursorESaISC_EE11_M_put_nodeEPSt10_List_nodeISC_E@Base 1.2.31
 _ZNSt10_List_baseIPN12kyotocabinet7ProtoDBISt3mapISsSsSt4lessISsESaISt4pairIKSsSsEEELh17EE6CursorESaISC_EE7_M_initEv@Base 1.2.31
 _ZNSt10_List_baseIPN12kyotocabinet7ProtoDBISt3mapISsSsSt4lessISsESaISt4pairIKSsSsEEELh17EE6CursorESaISC_EE8_M_clearEv@Base 1.2.31
 _ZNSt10_List_baseIPN12kyotocabinet7ProtoDBISt3mapISsSsSt4lessISsESaISt4pairIKSsSsEEELh17EE6CursorESaISC_EEC2Ev@Base 1.2.31
 _ZNSt10_List_baseIPN12kyotocabinet7ProtoDBISt3mapISsSsSt4lessISsESaISt4pairIKSsSsEEELh17EE6CursorESaISC_EED2Ev@Base 1.2.31
 _ZNSt10_List_baseIPN12kyotocabinet7StashDB6CursorESaIS3_EE10_List_implC1Ev@Base 1.2.31
 _ZNSt10_List_baseIPN12kyotocabinet7StashDB6CursorESaIS3_EE10_List_implD1Ev@Base 1.2.31
 _ZNSt10_List_baseIPN12kyotocabinet7StashDB6CursorESaIS3_EE11_M_get_nodeEv@Base 1.2.31
 _ZNSt10_List_baseIPN12kyotocabinet7StashDB6CursorESaIS3_EE11_M_put_nodeEPSt10_List_nodeIS3_E@Base 1.2.31
 _ZNSt10_List_baseIPN12kyotocabinet7StashDB6CursorESaIS3_EE7_M_initEv@Base 1.2.31
 _ZNSt10_List_baseIPN12kyotocabinet7StashDB6CursorESaIS3_EE8_M_clearEv@Base 1.2.31
 _ZNSt10_List_baseIPN12kyotocabinet7StashDB6CursorESaIS3_EEC2Ev@Base 1.2.31
 _ZNSt10_List_baseIPN12kyotocabinet7StashDB6CursorESaIS3_EED2Ev@Base 1.2.31
 _ZNSt11__copy_moveILb0ELb1ESt26random_access_iterator_tagE8__copy_mIN12kyotocabinet6PolyDB9MergeLineEEEPT_PKS6_S9_S7_@Base 1.2.31
 _ZNSt11__copy_moveILb0ELb1ESt26random_access_iterator_tagE8__copy_mIPN12kyotocabinet7PlantDBINS3_5DirDBELh65EE4LinkEEEPT_PKS9_SC_SA_@Base 1.2.31
 _ZNSt11__copy_moveILb0ELb1ESt26random_access_iterator_tagE8__copy_mIPN12kyotocabinet7PlantDBINS3_5DirDBELh65EE6RecordEEEPT_PKS9_SC_SA_@Base 1.2.31
 _ZNSt11__copy_moveILb0ELb1ESt26random_access_iterator_tagE8__copy_mIPN12kyotocabinet7PlantDBINS3_6HashDBELh49EE4LinkEEEPT_PKS9_SC_SA_@Base 1.2.31
 _ZNSt11__copy_moveILb0ELb1ESt26random_access_iterator_tagE8__copy_mIPN12kyotocabinet7PlantDBINS3_6HashDBELh49EE6RecordEEEPT_PKS9_SC_SA_@Base 1.2.31
 _ZNSt11__copy_moveILb0ELb1ESt26random_access_iterator_tagE8__copy_mIPN12kyotocabinet7PlantDBINS3_7CacheDBELh33EE4LinkEEEPT_PKS9_SC_SA_@Base 1.2.31
 _ZNSt11__copy_moveILb0ELb1ESt26random_access_iterator_tagE8__copy_mIPN12kyotocabinet7PlantDBINS3_7CacheDBELh33EE6RecordEEEPT_PKS9_SC_SA_@Base 1.2.31
 _ZNSt11__iter_swapILb1EE9iter_swapIPN12kyotocabinet6HashDB9FreeBlockES5_EEvT_T0_@Base 1.2.31
 _ZNSt11char_traitsIcE7compareEPKcS2_m@Base 1.2.31
 _ZNSt12_Destroy_auxILb0EE9__destroyIPN12kyotocabinet10WALMessageEEEvT_S5_@Base 1.2.31
 _ZNSt12_Destroy_auxILb0EE9__destroyIPSsEEvT_S3_@Base 1.2.31
 _ZNSt12_Destroy_auxILb1EE9__destroyIPN12kyotocabinet6PolyDB9MergeLineEEEvT_S6_@Base 1.2.31
 _ZNSt12_Destroy_auxILb1EE9__destroyIPPN12kyotocabinet7PlantDBINS2_5DirDBELh65EE4LinkEEEvT_S9_@Base 1.2.31
 _ZNSt12_Destroy_auxILb1EE9__destroyIPPN12kyotocabinet7PlantDBINS2_5DirDBELh65EE6RecordEEEvT_S9_@Base 1.2.31
 _ZNSt12_Destroy_auxILb1EE9__destroyIPPN12kyotocabinet7PlantDBINS2_6HashDBELh49EE4LinkEEEvT_S9_@Base 1.2.31
 _ZNSt12_Destroy_auxILb1EE9__destroyIPPN12kyotocabinet7PlantDBINS2_6HashDBELh49EE6RecordEEEvT_S9_@Base 1.2.31
 _ZNSt12_Destroy_auxILb1EE9__destroyIPPN12kyotocabinet7PlantDBINS2_7CacheDBELh33EE4LinkEEEvT_S9_@Base 1.2.31
 _ZNSt12_Destroy_auxILb1EE9__destroyIPPN12kyotocabinet7PlantDBINS2_7CacheDBELh33EE6RecordEEEvT_S9_@Base 1.2.31
 _ZNSt12_Vector_baseIN12kyotocabinet10WALMessageESaIS1_EE11_M_allocateEm@Base 1.2.31
 _ZNSt12_Vector_baseIN12kyotocabinet10WALMessageESaIS1_EE12_Vector_implC1Ev@Base 1.2.31
 _ZNSt12_Vector_baseIN12kyotocabinet10WALMessageESaIS1_EE12_Vector_implD1Ev@Base 1.2.31
 _ZNSt12_Vector_baseIN12kyotocabinet10WALMessageESaIS1_EE13_M_deallocateEPS1_m@Base 1.2.31
 _ZNSt12_Vector_baseIN12kyotocabinet10WALMessageESaIS1_EE19_M_get_Tp_allocatorEv@Base 1.2.31
 _ZNSt12_Vector_baseIN12kyotocabinet10WALMessageESaIS1_EEC2Ev@Base 1.2.31
 _ZNSt12_Vector_baseIN12kyotocabinet10WALMessageESaIS1_EED2Ev@Base 1.2.31
 _ZNSt12_Vector_baseIN12kyotocabinet6PolyDB9MergeLineESaIS2_EE11_M_allocateEm@Base 1.2.31
 _ZNSt12_Vector_baseIN12kyotocabinet6PolyDB9MergeLineESaIS2_EE12_Vector_implC1ERKS3_@Base 1.2.31
 _ZNSt12_Vector_baseIN12kyotocabinet6PolyDB9MergeLineESaIS2_EE12_Vector_implC1Ev@Base 1.2.31
 _ZNSt12_Vector_baseIN12kyotocabinet6PolyDB9MergeLineESaIS2_EE12_Vector_implD1Ev@Base 1.2.31
 _ZNSt12_Vector_baseIN12kyotocabinet6PolyDB9MergeLineESaIS2_EE13_M_deallocateEPS2_m@Base 1.2.31
 _ZNSt12_Vector_baseIN12kyotocabinet6PolyDB9MergeLineESaIS2_EE19_M_get_Tp_allocatorEv@Base 1.2.31
 _ZNSt12_Vector_baseIN12kyotocabinet6PolyDB9MergeLineESaIS2_EEC2EmRKS3_@Base 1.2.31
 _ZNSt12_Vector_baseIN12kyotocabinet6PolyDB9MergeLineESaIS2_EEC2Ev@Base 1.2.31
 _ZNSt12_Vector_baseIN12kyotocabinet6PolyDB9MergeLineESaIS2_EED2Ev@Base 1.2.31
 _ZNSt12_Vector_baseIPN12kyotocabinet7PlantDBINS0_5DirDBELh65EE4LinkESaIS5_EE11_M_allocateEm@Base 1.2.31
 _ZNSt12_Vector_baseIPN12kyotocabinet7PlantDBINS0_5DirDBELh65EE4LinkESaIS5_EE12_Vector_implC1Ev@Base 1.2.31
 _ZNSt12_Vector_baseIPN12kyotocabinet7PlantDBINS0_5DirDBELh65EE4LinkESaIS5_EE12_Vector_implD1Ev@Base 1.2.31
 _ZNSt12_Vector_baseIPN12kyotocabinet7PlantDBINS0_5DirDBELh65EE4LinkESaIS5_EE13_M_deallocateEPS5_m@Base 1.2.31
 _ZNSt12_Vector_baseIPN12kyotocabinet7PlantDBINS0_5DirDBELh65EE4LinkESaIS5_EE19_M_get_Tp_allocatorEv@Base 1.2.31
 _ZNSt12_Vector_baseIPN12kyotocabinet7PlantDBINS0_5DirDBELh65EE4LinkESaIS5_EEC2Ev@Base 1.2.31
 _ZNSt12_Vector_baseIPN12kyotocabinet7PlantDBINS0_5DirDBELh65EE4LinkESaIS5_EED2Ev@Base 1.2.31
 _ZNSt12_Vector_baseIPN12kyotocabinet7PlantDBINS0_5DirDBELh65EE6RecordESaIS5_EE11_M_allocateEm@Base 1.2.31
 _ZNSt12_Vector_baseIPN12kyotocabinet7PlantDBINS0_5DirDBELh65EE6RecordESaIS5_EE12_Vector_implC1Ev@Base 1.2.31
 _ZNSt12_Vector_baseIPN12kyotocabinet7PlantDBINS0_5DirDBELh65EE6RecordESaIS5_EE12_Vector_implD1Ev@Base 1.2.31
 _ZNSt12_Vector_baseIPN12kyotocabinet7PlantDBINS0_5DirDBELh65EE6RecordESaIS5_EE13_M_deallocateEPS5_m@Base 1.2.31
 _ZNSt12_Vector_baseIPN12kyotocabinet7PlantDBINS0_5DirDBELh65EE6RecordESaIS5_EE19_M_get_Tp_allocatorEv@Base 1.2.31
 _ZNSt12_Vector_baseIPN12kyotocabinet7PlantDBINS0_5DirDBELh65EE6RecordESaIS5_EEC2Ev@Base 1.2.31
 _ZNSt12_Vector_baseIPN12kyotocabinet7PlantDBINS0_5DirDBELh65EE6RecordESaIS5_EED2Ev@Base 1.2.31
 _ZNSt12_Vector_baseIPN12kyotocabinet7PlantDBINS0_6HashDBELh49EE4LinkESaIS5_EE11_M_allocateEm@Base 1.2.31
 _ZNSt12_Vector_baseIPN12kyotocabinet7PlantDBINS0_6HashDBELh49EE4LinkESaIS5_EE12_Vector_implC1Ev@Base 1.2.31
 _ZNSt12_Vector_baseIPN12kyotocabinet7PlantDBINS0_6HashDBELh49EE4LinkESaIS5_EE12_Vector_implD1Ev@Base 1.2.31
 _ZNSt12_Vector_baseIPN12kyotocabinet7PlantDBINS0_6HashDBELh49EE4LinkESaIS5_EE13_M_deallocateEPS5_m@Base 1.2.31
 _ZNSt12_Vector_baseIPN12kyotocabinet7PlantDBINS0_6HashDBELh49EE4LinkESaIS5_EE19_M_get_Tp_allocatorEv@Base 1.2.31
 _ZNSt12_Vector_baseIPN12kyotocabinet7PlantDBINS0_6HashDBELh49EE4LinkESaIS5_EEC2Ev@Base 1.2.31
 _ZNSt12_Vector_baseIPN12kyotocabinet7PlantDBINS0_6HashDBELh49EE4LinkESaIS5_EED2Ev@Base 1.2.31
 _ZNSt12_Vector_baseIPN12kyotocabinet7PlantDBINS0_6HashDBELh49EE6RecordESaIS5_EE11_M_allocateEm@Base 1.2.31
 _ZNSt12_Vector_baseIPN12kyotocabinet7PlantDBINS0_6HashDBELh49EE6RecordESaIS5_EE12_Vector_implC1Ev@Base 1.2.31
 _ZNSt12_Vector_baseIPN12kyotocabinet7PlantDBINS0_6HashDBELh49EE6RecordESaIS5_EE12_Vector_implD1Ev@Base 1.2.31
 _ZNSt12_Vector_baseIPN12kyotocabinet7PlantDBINS0_6HashDBELh49EE6RecordESaIS5_EE13_M_deallocateEPS5_m@Base 1.2.31
 _ZNSt12_Vector_baseIPN12kyotocabinet7PlantDBINS0_6HashDBELh49EE6RecordESaIS5_EE19_M_get_Tp_allocatorEv@Base 1.2.31
 _ZNSt12_Vector_baseIPN12kyotocabinet7PlantDBINS0_6HashDBELh49EE6RecordESaIS5_EEC2Ev@Base 1.2.31
 _ZNSt12_Vector_baseIPN12kyotocabinet7PlantDBINS0_6HashDBELh49EE6RecordESaIS5_EED2Ev@Base 1.2.31
 _ZNSt12_Vector_baseIPN12kyotocabinet7PlantDBINS0_7CacheDBELh33EE4LinkESaIS5_EE11_M_allocateEm@Base 1.2.31
 _ZNSt12_Vector_baseIPN12kyotocabinet7PlantDBINS0_7CacheDBELh33EE4LinkESaIS5_EE12_Vector_implC1Ev@Base 1.2.31
 _ZNSt12_Vector_baseIPN12kyotocabinet7PlantDBINS0_7CacheDBELh33EE4LinkESaIS5_EE12_Vector_implD1Ev@Base 1.2.31
 _ZNSt12_Vector_baseIPN12kyotocabinet7PlantDBINS0_7CacheDBELh33EE4LinkESaIS5_EE13_M_deallocateEPS5_m@Base 1.2.31
 _ZNSt12_Vector_baseIPN12kyotocabinet7PlantDBINS0_7CacheDBELh33EE4LinkESaIS5_EE19_M_get_Tp_allocatorEv@Base 1.2.31
 _ZNSt12_Vector_baseIPN12kyotocabinet7PlantDBINS0_7CacheDBELh33EE4LinkESaIS5_EEC2Ev@Base 1.2.31
 _ZNSt12_Vector_baseIPN12kyotocabinet7PlantDBINS0_7CacheDBELh33EE4LinkESaIS5_EED2Ev@Base 1.2.31
 _ZNSt12_Vector_baseIPN12kyotocabinet7PlantDBINS0_7CacheDBELh33EE6RecordESaIS5_EE11_M_allocateEm@Base 1.2.31
 _ZNSt12_Vector_baseIPN12kyotocabinet7PlantDBINS0_7CacheDBELh33EE6RecordESaIS5_EE12_Vector_implC1Ev@Base 1.2.31
 _ZNSt12_Vector_baseIPN12kyotocabinet7PlantDBINS0_7CacheDBELh33EE6RecordESaIS5_EE12_Vector_implD1Ev@Base 1.2.31
 _ZNSt12_Vector_baseIPN12kyotocabinet7PlantDBINS0_7CacheDBELh33EE6RecordESaIS5_EE13_M_deallocateEPS5_m@Base 1.2.31
 _ZNSt12_Vector_baseIPN12kyotocabinet7PlantDBINS0_7CacheDBELh33EE6RecordESaIS5_EE19_M_get_Tp_allocatorEv@Base 1.2.31
 _ZNSt12_Vector_baseIPN12kyotocabinet7PlantDBINS0_7CacheDBELh33EE6RecordESaIS5_EEC2Ev@Base 1.2.31
 _ZNSt12_Vector_baseIPN12kyotocabinet7PlantDBINS0_7CacheDBELh33EE6RecordESaIS5_EED2Ev@Base 1.2.31
 _ZNSt12_Vector_baseISsSaISsEE11_M_allocateEm@Base 1.2.31
 _ZNSt12_Vector_baseISsSaISsEE12_Vector_implC1Ev@Base 1.2.31
 _ZNSt12_Vector_baseISsSaISsEE12_Vector_implD1Ev@Base 1.2.31
 _ZNSt12_Vector_baseISsSaISsEE13_M_deallocateEPSsm@Base 1.2.31
 _ZNSt12_Vector_baseISsSaISsEE19_M_get_Tp_allocatorEv@Base 1.2.31
 _ZNSt12_Vector_baseISsSaISsEEC2Ev@Base 1.2.31
 _ZNSt12_Vector_baseISsSaISsEED2Ev@Base 1.2.31
 _ZNSt12__alloc_swapISaISt13_Rb_tree_nodeIN12kyotocabinet6HashDB9FreeBlockEEELb1EE8_S_do_itERS5_S7_@Base 1.2.31
 _ZNSt12__miter_baseIN9__gnu_cxx17__normal_iteratorIPKN12kyotocabinet6PolyDB9MergeLineESt6vectorIS4_SaIS4_EEEELb0EE3__bESA_@Base 1.2.31
 _ZNSt12__miter_baseIN9__gnu_cxx17__normal_iteratorIPPN12kyotocabinet7PlantDBINS2_5DirDBELh65EE4LinkESt6vectorIS7_SaIS7_EEEELb0EE3__bESC_@Base 1.2.31
 _ZNSt12__miter_baseIN9__gnu_cxx17__normal_iteratorIPPN12kyotocabinet7PlantDBINS2_5DirDBELh65EE6RecordESt6vectorIS7_SaIS7_EEEELb0EE3__bESC_@Base 1.2.31
 _ZNSt12__miter_baseIN9__gnu_cxx17__normal_iteratorIPPN12kyotocabinet7PlantDBINS2_6HashDBELh49EE4LinkESt6vectorIS7_SaIS7_EEEELb0EE3__bESC_@Base 1.2.31
 _ZNSt12__miter_baseIN9__gnu_cxx17__normal_iteratorIPPN12kyotocabinet7PlantDBINS2_6HashDBELh49EE6RecordESt6vectorIS7_SaIS7_EEEELb0EE3__bESC_@Base 1.2.31
 _ZNSt12__miter_baseIN9__gnu_cxx17__normal_iteratorIPPN12kyotocabinet7PlantDBINS2_7CacheDBELh33EE4LinkESt6vectorIS7_SaIS7_EEEELb0EE3__bESC_@Base 1.2.31
 _ZNSt12__miter_baseIN9__gnu_cxx17__normal_iteratorIPPN12kyotocabinet7PlantDBINS2_7CacheDBELh33EE6RecordESt6vectorIS7_SaIS7_EEEELb0EE3__bESC_@Base 1.2.31
 _ZNSt12__miter_baseIPN12kyotocabinet10WALMessageELb0EE3__bES2_@Base 1.2.31
 _ZNSt12__miter_baseIPN12kyotocabinet6HashDB9FreeBlockELb0EE3__bES3_@Base 1.2.31
 _ZNSt12__miter_baseIPN12kyotocabinet6PolyDB9MergeLineELb0EE3__bES3_@Base 1.2.31
 _ZNSt12__miter_baseIPPN12kyotocabinet7PlantDBINS0_5DirDBELh65EE4LinkELb0EE3__bES6_@Base 1.2.31
 _ZNSt12__miter_baseIPPN12kyotocabinet7PlantDBINS0_5DirDBELh65EE6RecordELb0EE3__bES6_@Base 1.2.31
 _ZNSt12__miter_baseIPPN12kyotocabinet7PlantDBINS0_6HashDBELh49EE4LinkELb0EE3__bES6_@Base 1.2.31
 _ZNSt12__miter_baseIPPN12kyotocabinet7PlantDBINS0_6HashDBELh49EE6RecordELb0EE3__bES6_@Base 1.2.31
 _ZNSt12__miter_baseIPPN12kyotocabinet7PlantDBINS0_7CacheDBELh33EE4LinkELb0EE3__bES6_@Base 1.2.31
 _ZNSt12__miter_baseIPPN12kyotocabinet7PlantDBINS0_7CacheDBELh33EE6RecordELb0EE3__bES6_@Base 1.2.31
 _ZNSt12__miter_baseIPSsLb0EE3__bES0_@Base 1.2.31
 _ZNSt12__niter_baseIN9__gnu_cxx17__normal_iteratorIPKN12kyotocabinet6PolyDB9MergeLineESt6vectorIS4_SaIS4_EEEELb1EE3__bESA_@Base 1.2.31
 _ZNSt12__niter_baseIN9__gnu_cxx17__normal_iteratorIPPN12kyotocabinet7PlantDBINS2_5DirDBELh65EE4LinkESt6vectorIS7_SaIS7_EEEELb1EE3__bESC_@Base 1.2.31
 _ZNSt12__niter_baseIN9__gnu_cxx17__normal_iteratorIPPN12kyotocabinet7PlantDBINS2_5DirDBELh65EE6RecordESt6vectorIS7_SaIS7_EEEELb1EE3__bESC_@Base 1.2.31
 _ZNSt12__niter_baseIN9__gnu_cxx17__normal_iteratorIPPN12kyotocabinet7PlantDBINS2_6HashDBELh49EE4LinkESt6vectorIS7_SaIS7_EEEELb1EE3__bESC_@Base 1.2.31
 _ZNSt12__niter_baseIN9__gnu_cxx17__normal_iteratorIPPN12kyotocabinet7PlantDBINS2_6HashDBELh49EE6RecordESt6vectorIS7_SaIS7_EEEELb1EE3__bESC_@Base 1.2.31
 _ZNSt12__niter_baseIN9__gnu_cxx17__normal_iteratorIPPN12kyotocabinet7PlantDBINS2_7CacheDBELh33EE4LinkESt6vectorIS7_SaIS7_EEEELb1EE3__bESC_@Base 1.2.31
 _ZNSt12__niter_baseIN9__gnu_cxx17__normal_iteratorIPPN12kyotocabinet7PlantDBINS2_7CacheDBELh33EE6RecordESt6vectorIS7_SaIS7_EEEELb1EE3__bESC_@Base 1.2.31
 _ZNSt12__niter_baseIPN12kyotocabinet10WALMessageELb0EE3__bES2_@Base 1.2.31
 _ZNSt12__niter_baseIPN12kyotocabinet6HashDB9FreeBlockELb0EE3__bES3_@Base 1.2.31
 _ZNSt12__niter_baseIPN12kyotocabinet6PolyDB9MergeLineELb0EE3__bES3_@Base 1.2.31
 _ZNSt12__niter_baseIPPN12kyotocabinet7PlantDBINS0_5DirDBELh65EE4LinkELb0EE3__bES6_@Base 1.2.31
 _ZNSt12__niter_baseIPPN12kyotocabinet7PlantDBINS0_5DirDBELh65EE6RecordELb0EE3__bES6_@Base 1.2.31
 _ZNSt12__niter_baseIPPN12kyotocabinet7PlantDBINS0_6HashDBELh49EE4LinkELb0EE3__bES6_@Base 1.2.31
 _ZNSt12__niter_baseIPPN12kyotocabinet7PlantDBINS0_6HashDBELh49EE6RecordELb0EE3__bES6_@Base 1.2.31
 _ZNSt12__niter_baseIPPN12kyotocabinet7PlantDBINS0_7CacheDBELh33EE4LinkELb0EE3__bES6_@Base 1.2.31
 _ZNSt12__niter_baseIPPN12kyotocabinet7PlantDBINS0_7CacheDBELh33EE6RecordELb0EE3__bES6_@Base 1.2.31
 _ZNSt12__niter_baseIPPNSt3tr18__detail10_Hash_nodeISt4pairIKSsSsELb0EEELb0EE3__bES8_@Base 1.2.31
 _ZNSt12__niter_baseIPSsLb0EE3__bES0_@Base 1.2.31
 _ZNSt14_List_iteratorIN12kyotocabinet7CacheDB7TranLogEEC1EPSt15_List_node_base@Base 1.2.31
 _ZNSt14_List_iteratorIN12kyotocabinet7ProtoDBINSt3tr113unordered_mapISsSsNS2_4hashISsEESt8equal_toISsESaISt4pairIKSsSsEEEELh16EE7TranLogEEC1EPSt15_List_node_base@Base 1.2.31
 _ZNSt14_List_iteratorIN12kyotocabinet7ProtoDBISt3mapISsSsSt4lessISsESaISt4pairIKSsSsEEELh17EE7TranLogEEC1EPSt15_List_node_base@Base 1.2.31
 _ZNSt14_List_iteratorIN12kyotocabinet7StashDB7TranLogEEC1EPSt15_List_node_base@Base 1.2.31
 _ZNSt14_List_iteratorIPN12kyotocabinet5DirDB6CursorEEC1EPSt15_List_node_base@Base 1.2.31
 _ZNSt14_List_iteratorIPN12kyotocabinet5DirDB6CursorEEppEv@Base 1.2.31
 _ZNSt14_List_iteratorIPN12kyotocabinet6HashDB6CursorEEC1EPSt15_List_node_base@Base 1.2.31
 _ZNSt14_List_iteratorIPN12kyotocabinet6HashDB6CursorEEppEv@Base 1.2.31
 _ZNSt14_List_iteratorIPN12kyotocabinet7CacheDB6CursorEEC1EPSt15_List_node_base@Base 1.2.31
 _ZNSt14_List_iteratorIPN12kyotocabinet7CacheDB6CursorEEppEv@Base 1.2.31
 _ZNSt14_List_iteratorIPN12kyotocabinet7PlantDBINS0_5DirDBELh65EE6CursorEEC1EPSt15_List_node_base@Base 1.2.31
 _ZNSt14_List_iteratorIPN12kyotocabinet7PlantDBINS0_5DirDBELh65EE6CursorEEppEv@Base 1.2.31
 _ZNSt14_List_iteratorIPN12kyotocabinet7PlantDBINS0_6HashDBELh49EE6CursorEEC1EPSt15_List_node_base@Base 1.2.31
 _ZNSt14_List_iteratorIPN12kyotocabinet7PlantDBINS0_6HashDBELh49EE6CursorEEppEv@Base 1.2.31
 _ZNSt14_List_iteratorIPN12kyotocabinet7PlantDBINS0_7CacheDBELh33EE6CursorEEC1EPSt15_List_node_base@Base 1.2.31
 _ZNSt14_List_iteratorIPN12kyotocabinet7PlantDBINS0_7CacheDBELh33EE6CursorEEppEv@Base 1.2.31
 _ZNSt14_List_iteratorIPN12kyotocabinet7ProtoDBINSt3tr113unordered_mapISsSsNS2_4hashISsEESt8equal_toISsESaISt4pairIKSsSsEEEELh16EE6CursorEEC1EPSt15_List_node_base@Base 1.2.31
 _ZNSt14_List_iteratorIPN12kyotocabinet7ProtoDBINSt3tr113unordered_mapISsSsNS2_4hashISsEESt8equal_toISsESaISt4pairIKSsSsEEEELh16EE6CursorEEppEv@Base 1.2.31
 _ZNSt14_List_iteratorIPN12kyotocabinet7ProtoDBISt3mapISsSsSt4lessISsESaISt4pairIKSsSsEEELh17EE6CursorEEC1EPSt15_List_node_base@Base 1.2.31
 _ZNSt14_List_iteratorIPN12kyotocabinet7ProtoDBISt3mapISsSsSt4lessISsESaISt4pairIKSsSsEEELh17EE6CursorEEppEv@Base 1.2.31
 _ZNSt14_List_iteratorIPN12kyotocabinet7StashDB6CursorEEC1EPSt15_List_node_base@Base 1.2.31
 _ZNSt14_List_iteratorIPN12kyotocabinet7StashDB6CursorEEppEv@Base 1.2.31
 _ZNSt14numeric_limitsIaE3maxEv@Base 1.2.41
 _ZNSt14numeric_limitsIaE3minEv@Base 1.2.41
 _ZNSt14numeric_limitsIdE8infinityEv@Base 1.2.31
 _ZNSt14numeric_limitsIdE9quiet_NaNEv@Base 1.2.31
 _ZNSt14numeric_limitsIhE3maxEv@Base 1.2.41
 _ZNSt14numeric_limitsIiE3maxEv@Base 1.2.41
 _ZNSt14numeric_limitsIiE3minEv@Base 1.2.41
 _ZNSt14numeric_limitsIjE3maxEv@Base 1.2.41
 _ZNSt14numeric_limitsIlE3maxEv@Base 1.2.41
 _ZNSt14numeric_limitsIlE3minEv@Base 1.2.41
 _ZNSt14numeric_limitsImE3maxEv@Base 1.2.41
 _ZNSt14numeric_limitsIsE3maxEv@Base 1.2.41
 _ZNSt14numeric_limitsIsE3minEv@Base 1.2.41
 _ZNSt14numeric_limitsItE3maxEv@Base 1.2.41
 _ZNSt14priority_queueIN12kyotocabinet6PolyDB9MergeLineESt6vectorIS2_SaIS2_EESt4lessIS2_EE3popEv@Base 1.2.31
 _ZNSt14priority_queueIN12kyotocabinet6PolyDB9MergeLineESt6vectorIS2_SaIS2_EESt4lessIS2_EE4pushERKS2_@Base 1.2.31
 _ZNSt14priority_queueIN12kyotocabinet6PolyDB9MergeLineESt6vectorIS2_SaIS2_EESt4lessIS2_EEC1ERKS7_RKS5_@Base 1.2.31
 _ZNSt14priority_queueIN12kyotocabinet6PolyDB9MergeLineESt6vectorIS2_SaIS2_EESt4lessIS2_EED1Ev@Base 1.2.31
 _ZNSt16invalid_argumentD0Ev@Base 1.2.31
 _ZNSt16invalid_argumentD1Ev@Base 1.2.31
 _ZNSt17_Rb_tree_iteratorIN12kyotocabinet6HashDB9FreeBlockEEC1EPSt13_Rb_tree_nodeIS2_E@Base 1.2.31
 _ZNSt17_Rb_tree_iteratorIN12kyotocabinet6HashDB9FreeBlockEEmmEv@Base 1.2.31
 _ZNSt17_Rb_tree_iteratorISt4pairIKSsSsEEC1EPSt13_Rb_tree_nodeIS2_E@Base 1.2.31
 _ZNSt17_Rb_tree_iteratorISt4pairIKSsSsEEmmEv@Base 1.2.31
 _ZNSt17_Rb_tree_iteratorISt4pairIKSsSsEEppEi@Base 1.2.31
 _ZNSt17_Rb_tree_iteratorIiEC1EPSt13_Rb_tree_nodeIiE@Base 1.2.31
 _ZNSt17_Rb_tree_iteratorIiEmmEv@Base 1.2.31
 _ZNSt17_Rb_tree_iteratorImEC1EPSt13_Rb_tree_nodeImE@Base 1.2.31
 _ZNSt17_Rb_tree_iteratorImEmmEv@Base 1.2.31
 _ZNSt20_List_const_iteratorIN12kyotocabinet7CacheDB7TranLogEEC1EPKSt15_List_node_base@Base 1.2.31
 _ZNSt20_List_const_iteratorIN12kyotocabinet7CacheDB7TranLogEEmmEi@Base 1.2.31
 _ZNSt20_List_const_iteratorIN12kyotocabinet7ProtoDBINSt3tr113unordered_mapISsSsNS2_4hashISsEESt8equal_toISsESaISt4pairIKSsSsEEEELh16EE7TranLogEEC1EPKSt15_List_node_base@Base 1.2.31
 _ZNSt20_List_const_iteratorIN12kyotocabinet7ProtoDBINSt3tr113unordered_mapISsSsNS2_4hashISsEESt8equal_toISsESaISt4pairIKSsSsEEEELh16EE7TranLogEEmmEi@Base 1.2.31
 _ZNSt20_List_const_iteratorIN12kyotocabinet7ProtoDBISt3mapISsSsSt4lessISsESaISt4pairIKSsSsEEELh17EE7TranLogEEC1EPKSt15_List_node_base@Base 1.2.31
 _ZNSt20_List_const_iteratorIN12kyotocabinet7ProtoDBISt3mapISsSsSt4lessISsESaISt4pairIKSsSsEEELh17EE7TranLogEEmmEi@Base 1.2.31
 _ZNSt20_List_const_iteratorIN12kyotocabinet7StashDB7TranLogEEC1ERKSt14_List_iteratorIS2_E@Base 1.2.31
 _ZNSt20_List_const_iteratorIN12kyotocabinet7StashDB7TranLogEEmmEi@Base 1.2.31
 _ZNSt20_List_const_iteratorIPN12kyotocabinet5DirDB6CursorEEC1ERKSt14_List_iteratorIS3_E@Base 1.2.31
 _ZNSt20_List_const_iteratorIPN12kyotocabinet5DirDB6CursorEEppEi@Base 1.2.31
 _ZNSt20_List_const_iteratorIPN12kyotocabinet6HashDB6CursorEEC1ERKSt14_List_iteratorIS3_E@Base 1.2.31
 _ZNSt20_List_const_iteratorIPN12kyotocabinet6HashDB6CursorEEppEi@Base 1.2.31
 _ZNSt20_List_const_iteratorIPN12kyotocabinet7CacheDB6CursorEEC1ERKSt14_List_iteratorIS3_E@Base 1.2.31
 _ZNSt20_List_const_iteratorIPN12kyotocabinet7CacheDB6CursorEEppEi@Base 1.2.31
 _ZNSt20_List_const_iteratorIPN12kyotocabinet7PlantDBINS0_5DirDBELh65EE6CursorEEC1ERKSt14_List_iteratorIS5_E@Base 1.2.31
 _ZNSt20_List_const_iteratorIPN12kyotocabinet7PlantDBINS0_5DirDBELh65EE6CursorEEppEi@Base 1.2.31
 _ZNSt20_List_const_iteratorIPN12kyotocabinet7PlantDBINS0_6HashDBELh49EE6CursorEEC1ERKSt14_List_iteratorIS5_E@Base 1.2.31
 _ZNSt20_List_const_iteratorIPN12kyotocabinet7PlantDBINS0_6HashDBELh49EE6CursorEEppEi@Base 1.2.31
 _ZNSt20_List_const_iteratorIPN12kyotocabinet7PlantDBINS0_7CacheDBELh33EE6CursorEEC1ERKSt14_List_iteratorIS5_E@Base 1.2.31
 _ZNSt20_List_const_iteratorIPN12kyotocabinet7PlantDBINS0_7CacheDBELh33EE6CursorEEppEi@Base 1.2.31
 _ZNSt20_List_const_iteratorIPN12kyotocabinet7ProtoDBINSt3tr113unordered_mapISsSsNS2_4hashISsEESt8equal_toISsESaISt4pairIKSsSsEEEELh16EE6CursorEEC1EPKSt15_List_node_base@Base 1.2.31
 _ZNSt20_List_const_iteratorIPN12kyotocabinet7ProtoDBINSt3tr113unordered_mapISsSsNS2_4hashISsEESt8equal_toISsESaISt4pairIKSsSsEEEELh16EE6CursorEEC1ERKSt14_List_iteratorISF_E@Base 1.2.31
 _ZNSt20_List_const_iteratorIPN12kyotocabinet7ProtoDBINSt3tr113unordered_mapISsSsNS2_4hashISsEESt8equal_toISsESaISt4pairIKSsSsEEEELh16EE6CursorEEppEi@Base 1.2.31
 _ZNSt20_List_const_iteratorIPN12kyotocabinet7ProtoDBINSt3tr113unordered_mapISsSsNS2_4hashISsEESt8equal_toISsESaISt4pairIKSsSsEEEELh16EE6CursorEEppEv@Base 1.2.31
 _ZNSt20_List_const_iteratorIPN12kyotocabinet7ProtoDBISt3mapISsSsSt4lessISsESaISt4pairIKSsSsEEELh17EE6CursorEEC1EPKSt15_List_node_base@Base 1.2.31
 _ZNSt20_List_const_iteratorIPN12kyotocabinet7ProtoDBISt3mapISsSsSt4lessISsESaISt4pairIKSsSsEEELh17EE6CursorEEC1ERKSt14_List_iteratorISC_E@Base 1.2.31
 _ZNSt20_List_const_iteratorIPN12kyotocabinet7ProtoDBISt3mapISsSsSt4lessISsESaISt4pairIKSsSsEEELh17EE6CursorEEppEi@Base 1.2.31
 _ZNSt20_List_const_iteratorIPN12kyotocabinet7ProtoDBISt3mapISsSsSt4lessISsESaISt4pairIKSsSsEEELh17EE6CursorEEppEv@Base 1.2.31
 _ZNSt20_List_const_iteratorIPN12kyotocabinet7StashDB6CursorEEC1ERKSt14_List_iteratorIS3_E@Base 1.2.31
 _ZNSt20_List_const_iteratorIPN12kyotocabinet7StashDB6CursorEEppEi@Base 1.2.31
 _ZNSt20__copy_move_backwardILb0ELb0ESt26random_access_iterator_tagE13__copy_move_bIPN12kyotocabinet10WALMessageES5_EET0_T_S7_S6_@Base 1.2.31
 _ZNSt20__copy_move_backwardILb0ELb0ESt26random_access_iterator_tagE13__copy_move_bIPSsS3_EET0_T_S5_S4_@Base 1.2.31
 _ZNSt20__copy_move_backwardILb0ELb1ESt26random_access_iterator_tagE13__copy_move_bIN12kyotocabinet6HashDB9FreeBlockEEEPT_PKS6_S9_S7_@Base 1.2.31
 _ZNSt20__copy_move_backwardILb0ELb1ESt26random_access_iterator_tagE13__copy_move_bIN12kyotocabinet6PolyDB9MergeLineEEEPT_PKS6_S9_S7_@Base 1.2.31
 _ZNSt20__copy_move_backwardILb0ELb1ESt26random_access_iterator_tagE13__copy_move_bIPN12kyotocabinet7PlantDBINS3_5DirDBELh65EE4LinkEEEPT_PKS9_SC_SA_@Base 1.2.31
 _ZNSt20__copy_move_backwardILb0ELb1ESt26random_access_iterator_tagE13__copy_move_bIPN12kyotocabinet7PlantDBINS3_5DirDBELh65EE6RecordEEEPT_PKS9_SC_SA_@Base 1.2.31
 _ZNSt20__copy_move_backwardILb0ELb1ESt26random_access_iterator_tagE13__copy_move_bIPN12kyotocabinet7PlantDBINS3_6HashDBELh49EE4LinkEEEPT_PKS9_SC_SA_@Base 1.2.31
 _ZNSt20__copy_move_backwardILb0ELb1ESt26random_access_iterator_tagE13__copy_move_bIPN12kyotocabinet7PlantDBINS3_6HashDBELh49EE6RecordEEEPT_PKS9_SC_SA_@Base 1.2.31
 _ZNSt20__copy_move_backwardILb0ELb1ESt26random_access_iterator_tagE13__copy_move_bIPN12kyotocabinet7PlantDBINS3_7CacheDBELh33EE4LinkEEEPT_PKS9_SC_SA_@Base 1.2.31
 _ZNSt20__copy_move_backwardILb0ELb1ESt26random_access_iterator_tagE13__copy_move_bIPN12kyotocabinet7PlantDBINS3_7CacheDBELh33EE6RecordEEEPT_PKS9_SC_SA_@Base 1.2.31
 _ZNSt20__uninitialized_copyILb0EE18uninitialized_copyIPN12kyotocabinet10WALMessageES4_EET0_T_S6_S5_@Base 1.2.31
 _ZNSt20__uninitialized_copyILb0EE18uninitialized_copyIPSsS2_EET0_T_S4_S3_@Base 1.2.31
 _ZNSt20__uninitialized_copyILb1EE18uninitialized_copyIN9__gnu_cxx17__normal_iteratorIPKN12kyotocabinet6PolyDB9MergeLineESt6vectorIS6_SaIS6_EEEEPS6_EET0_T_SF_SE_@Base 1.2.31
 _ZNSt20__uninitialized_copyILb1EE18uninitialized_copyIPN12kyotocabinet6PolyDB9MergeLineES5_EET0_T_S7_S6_@Base 1.2.31
 _ZNSt20__uninitialized_copyILb1EE18uninitialized_copyIPPN12kyotocabinet7PlantDBINS2_5DirDBELh65EE4LinkES8_EET0_T_SA_S9_@Base 1.2.31
 _ZNSt20__uninitialized_copyILb1EE18uninitialized_copyIPPN12kyotocabinet7PlantDBINS2_5DirDBELh65EE6RecordES8_EET0_T_SA_S9_@Base 1.2.31
 _ZNSt20__uninitialized_copyILb1EE18uninitialized_copyIPPN12kyotocabinet7PlantDBINS2_6HashDBELh49EE4LinkES8_EET0_T_SA_S9_@Base 1.2.31
 _ZNSt20__uninitialized_copyILb1EE18uninitialized_copyIPPN12kyotocabinet7PlantDBINS2_6HashDBELh49EE6RecordES8_EET0_T_SA_S9_@Base 1.2.31
 _ZNSt20__uninitialized_copyILb1EE18uninitialized_copyIPPN12kyotocabinet7PlantDBINS2_7CacheDBELh33EE4LinkES8_EET0_T_SA_S9_@Base 1.2.31
 _ZNSt20__uninitialized_copyILb1EE18uninitialized_copyIPPN12kyotocabinet7PlantDBINS2_7CacheDBELh33EE6RecordES8_EET0_T_SA_S9_@Base 1.2.31
 _ZNSt23_Rb_tree_const_iteratorIN12kyotocabinet6HashDB9FreeBlockEEC1EPKSt13_Rb_tree_nodeIS2_E@Base 1.2.31
 _ZNSt23_Rb_tree_const_iteratorIN12kyotocabinet6HashDB9FreeBlockEEC1ERKSt17_Rb_tree_iteratorIS2_E@Base 1.2.31
 _ZNSt23_Rb_tree_const_iteratorIN12kyotocabinet6HashDB9FreeBlockEEmmEi@Base 1.2.31
 _ZNSt23_Rb_tree_const_iteratorIN12kyotocabinet6HashDB9FreeBlockEEppEi@Base 1.2.31
 _ZNSt23_Rb_tree_const_iteratorISt4pairIKSsSsEEC1EPKSt13_Rb_tree_nodeIS2_E@Base 1.2.31
 _ZNSt23_Rb_tree_const_iteratorISt4pairIKSsSsEEC1ERKSt17_Rb_tree_iteratorIS2_E@Base 1.2.31
 _ZNSt23_Rb_tree_const_iteratorISt4pairIKSsSsEEmmEv@Base 1.2.31
 _ZNSt23_Rb_tree_const_iteratorISt4pairIKSsSsEEppEi@Base 1.2.32
 _ZNSt23_Rb_tree_const_iteratorISt4pairIKSsSsEEppEv@Base 1.2.31
 _ZNSt23_Rb_tree_const_iteratorIiEC1EPKSt13_Rb_tree_nodeIiE@Base 1.2.31
 _ZNSt23_Rb_tree_const_iteratorIiEC1ERKSt17_Rb_tree_iteratorIiE@Base 1.2.31
 _ZNSt23_Rb_tree_const_iteratorIiEppEi@Base 1.2.31
 _ZNSt23_Rb_tree_const_iteratorImEC1EPKSt13_Rb_tree_nodeImE@Base 1.2.31
 _ZNSt23_Rb_tree_const_iteratorImEC1ERKSt17_Rb_tree_iteratorImE@Base 1.2.31
 _ZNSt23_Rb_tree_const_iteratorImEppEi@Base 1.2.31
 _ZNSt3mapISsSsSt4lessISsESaISt4pairIKSsSsEEE11lower_boundERS3_@Base 1.2.31
 _ZNSt3mapISsSsSt4lessISsESaISt4pairIKSsSsEEE11upper_boundERS3_@Base 1.2.31
 _ZNSt3mapISsSsSt4lessISsESaISt4pairIKSsSsEEE3endEv@Base 1.2.31
 _ZNSt3mapISsSsSt4lessISsESaISt4pairIKSsSsEEE4findERS3_@Base 1.2.31
 _ZNSt3mapISsSsSt4lessISsESaISt4pairIKSsSsEEE5beginEv@Base 1.2.31
 _ZNSt3mapISsSsSt4lessISsESaISt4pairIKSsSsEEE5clearEv@Base 1.2.31
 _ZNSt3mapISsSsSt4lessISsESaISt4pairIKSsSsEEE5eraseERS3_@Base 1.2.31
 _ZNSt3mapISsSsSt4lessISsESaISt4pairIKSsSsEEE5eraseESt17_Rb_tree_iteratorIS4_E@Base 1.2.31
 _ZNSt3mapISsSsSt4lessISsESaISt4pairIKSsSsEEE6insertESt17_Rb_tree_iteratorIS4_ERKS4_@Base 1.2.31
 _ZNSt3mapISsSsSt4lessISsESaISt4pairIKSsSsEEEC1Ev@Base 1.2.31
 _ZNSt3mapISsSsSt4lessISsESaISt4pairIKSsSsEEED1Ev@Base 1.2.31
 _ZNSt3mapISsSsSt4lessISsESaISt4pairIKSsSsEEEixERS3_@Base 1.2.31
 _ZNSt3setIN12kyotocabinet6HashDB9FreeBlockESt4lessIS2_ESaIS2_EE11upper_boundERKS2_@Base 1.2.31
 _ZNSt3setIN12kyotocabinet6HashDB9FreeBlockESt4lessIS2_ESaIS2_EE4swapERS6_@Base 1.2.31
 _ZNSt3setIN12kyotocabinet6HashDB9FreeBlockESt4lessIS2_ESaIS2_EE5clearEv@Base 1.2.31
 _ZNSt3setIN12kyotocabinet6HashDB9FreeBlockESt4lessIS2_ESaIS2_EE5eraseESt23_Rb_tree_const_iteratorIS2_E@Base 1.2.31
 _ZNSt3setIN12kyotocabinet6HashDB9FreeBlockESt4lessIS2_ESaIS2_EE6insertERKS2_@Base 1.2.31
 _ZNSt3setIN12kyotocabinet6HashDB9FreeBlockESt4lessIS2_ESaIS2_EEC1Ev@Base 1.2.31
 _ZNSt3setIN12kyotocabinet6HashDB9FreeBlockESt4lessIS2_ESaIS2_EED1Ev@Base 1.2.31
 _ZNSt3setIiSt4lessIiESaIiEE6insertERKi@Base 1.2.31
 _ZNSt3setIiSt4lessIiESaIiEEC1Ev@Base 1.2.31
 _ZNSt3setIiSt4lessIiESaIiEED1Ev@Base 1.2.31
 _ZNSt3setImSt4lessImESaImEE6insertERKm@Base 1.2.31
 _ZNSt3setImSt4lessImESaImEEC1Ev@Base 1.2.31
 _ZNSt3setImSt4lessImESaImEED1Ev@Base 1.2.31
 _ZNSt3tr110_HashtableISsSt4pairIKSsSsESaIS3_ESt10_Select1stIS3_ESt8equal_toISsENS_4hashISsEENS_8__detail18_Mod_range_hashingENSB_20_Default_ranged_hashENSB_20_Prime_rehash_policyELb0ELb0ELb1EE13_M_erase_nodeEPNSB_10_Hash_nodeIS3_Lb0EEEPSI_@Base 1.2.31
 _ZNSt3tr110_HashtableISsSt4pairIKSsSsESaIS3_ESt10_Select1stIS3_ESt8equal_toISsENS_4hashISsEENS_8__detail18_Mod_range_hashingENSB_20_Default_ranged_hashENSB_20_Prime_rehash_policyELb0ELb0ELb1EE15__rehash_policyERKSE_@Base 1.2.31
 _ZNSt3tr110_HashtableISsSt4pairIKSsSsESaIS3_ESt10_Select1stIS3_ESt8equal_toISsENS_4hashISsEENS_8__detail18_Mod_range_hashingENSB_20_Default_ranged_hashENSB_20_Prime_rehash_policyELb0ELb0ELb1EE16_M_allocate_nodeERKS3_@Base 1.2.31
 _ZNSt3tr110_HashtableISsSt4pairIKSsSsESaIS3_ESt10_Select1stIS3_ESt8equal_toISsENS_4hashISsEENS_8__detail18_Mod_range_hashingENSB_20_Default_ranged_hashENSB_20_Prime_rehash_policyELb0ELb0ELb1EE16_M_insert_bucketERKS3_mm@Base 1.2.31
 _ZNSt3tr110_HashtableISsSt4pairIKSsSsESaIS3_ESt10_Select1stIS3_ESt8equal_toISsENS_4hashISsEENS_8__detail18_Mod_range_hashingENSB_20_Default_ranged_hashENSB_20_Prime_rehash_policyELb0ELb0ELb1EE18_M_deallocate_nodeEPNSB_10_Hash_nodeIS3_Lb0EEE@Base 1.2.31
 _ZNSt3tr110_HashtableISsSt4pairIKSsSsESaIS3_ESt10_Select1stIS3_ESt8equal_toISsENS_4hashISsEENS_8__detail18_Mod_range_hashingENSB_20_Default_ranged_hashENSB_20_Prime_rehash_policyELb0ELb0ELb1EE19_M_allocate_bucketsEm@Base 1.2.31
 _ZNSt3tr110_HashtableISsSt4pairIKSsSsESaIS3_ESt10_Select1stIS3_ESt8equal_toISsENS_4hashISsEENS_8__detail18_Mod_range_hashingENSB_20_Default_ranged_hashENSB_20_Prime_rehash_policyELb0ELb0ELb1EE19_M_deallocate_nodesEPPNSB_10_Hash_nodeIS3_Lb0EEEm@Base 1.2.31
 _ZNSt3tr110_HashtableISsSt4pairIKSsSsESaIS3_ESt10_Select1stIS3_ESt8equal_toISsENS_4hashISsEENS_8__detail18_Mod_range_hashingENSB_20_Default_ranged_hashENSB_20_Prime_rehash_policyELb0ELb0ELb1EE21_M_deallocate_bucketsEPPNSB_10_Hash_nodeIS3_Lb0EEEm@Base 1.2.31
 _ZNSt3tr110_HashtableISsSt4pairIKSsSsESaIS3_ESt10_Select1stIS3_ESt8equal_toISsENS_4hashISsEENS_8__detail18_Mod_range_hashingENSB_20_Default_ranged_hashENSB_20_Prime_rehash_policyELb0ELb0ELb1EE3endEv@Base 1.2.31
 _ZNSt3tr110_HashtableISsSt4pairIKSsSsESaIS3_ESt10_Select1stIS3_ESt8equal_toISsENS_4hashISsEENS_8__detail18_Mod_range_hashingENSB_20_Default_ranged_hashENSB_20_Prime_rehash_policyELb0ELb0ELb1EE4findERS2_@Base 1.2.31
 _ZNSt3tr110_HashtableISsSt4pairIKSsSsESaIS3_ESt10_Select1stIS3_ESt8equal_toISsENS_4hashISsEENS_8__detail18_Mod_range_hashingENSB_20_Default_ranged_hashENSB_20_Prime_rehash_policyELb0ELb0ELb1EE5beginEv@Base 1.2.31
 _ZNSt3tr110_HashtableISsSt4pairIKSsSsESaIS3_ESt10_Select1stIS3_ESt8equal_toISsENS_4hashISsEENS_8__detail18_Mod_range_hashingENSB_20_Default_ranged_hashENSB_20_Prime_rehash_policyELb0ELb0ELb1EE5clearEv@Base 1.2.31
 _ZNSt3tr110_HashtableISsSt4pairIKSsSsESaIS3_ESt10_Select1stIS3_ESt8equal_toISsENS_4hashISsEENS_8__detail18_Mod_range_hashingENSB_20_Default_ranged_hashENSB_20_Prime_rehash_policyELb0ELb0ELb1EE5eraseENSB_19_Hashtable_iteratorIS3_Lb0ELb0EEE@Base 1.2.31
 _ZNSt3tr110_HashtableISsSt4pairIKSsSsESaIS3_ESt10_Select1stIS3_ESt8equal_toISsENS_4hashISsEENS_8__detail18_Mod_range_hashingENSB_20_Default_ranged_hashENSB_20_Prime_rehash_policyELb0ELb0ELb1EE5eraseERS2_@Base 1.2.31
 _ZNSt3tr110_HashtableISsSt4pairIKSsSsESaIS3_ESt10_Select1stIS3_ESt8equal_toISsENS_4hashISsEENS_8__detail18_Mod_range_hashingENSB_20_Default_ranged_hashENSB_20_Prime_rehash_policyELb0ELb0ELb1EE6rehashEm@Base 1.2.31
 _ZNSt3tr110_HashtableISsSt4pairIKSsSsESaIS3_ESt10_Select1stIS3_ESt8equal_toISsENS_4hashISsEENS_8__detail18_Mod_range_hashingENSB_20_Default_ranged_hashENSB_20_Prime_rehash_policyELb0ELb0ELb1EE9_M_rehashEm@Base 1.2.31
 _ZNSt3tr110_HashtableISsSt4pairIKSsSsESaIS3_ESt10_Select1stIS3_ESt8equal_toISsENS_4hashISsEENS_8__detail18_Mod_range_hashingENSB_20_Default_ranged_hashENSB_20_Prime_rehash_policyELb0ELb0ELb1EEC2EmRKSA_RKSC_RKSD_RKS8_RKS6_RKS4_@Base 1.2.31
 _ZNSt3tr110_HashtableISsSt4pairIKSsSsESaIS3_ESt10_Select1stIS3_ESt8equal_toISsENS_4hashISsEENS_8__detail18_Mod_range_hashingENSB_20_Default_ranged_hashENSB_20_Prime_rehash_policyELb0ELb0ELb1EED2Ev@Base 1.2.31
 _ZNSt3tr113unordered_mapISsSsNS_4hashISsEESt8equal_toISsESaISt4pairIKSsSsEEEC1EmRKS2_RKS4_RKS8_@Base 1.2.31
 _ZNSt3tr113unordered_mapISsSsNS_4hashISsEESt8equal_toISsESaISt4pairIKSsSsEEED1Ev@Base 1.2.31
 _ZNSt3tr115__unordered_mapISsSsNS_4hashISsEESt8equal_toISsESaISt4pairIKSsSsEELb0EEC2EmRKS2_RKS4_RKS8_@Base 1.2.31
 _ZNSt3tr115__unordered_mapISsSsNS_4hashISsEESt8equal_toISsESaISt4pairIKSsSsEELb0EED2Ev@Base 1.2.31
 _ZNSt3tr18__detail12_Rehash_baseINS0_20_Prime_rehash_policyENS_10_HashtableISsSt4pairIKSsSsESaIS6_ESt10_Select1stIS6_ESt8equal_toISsENS_4hashISsEENS0_18_Mod_range_hashingENS0_20_Default_ranged_hashES2_Lb0ELb0ELb1EEEE15max_load_factorEf@Base 1.2.31
 _ZNSt3tr18__detail13__lower_boundIPKmfEET_S4_S4_RKT0_@Base 1.2.31
 _ZNSt3tr18__detail13__lower_boundIPKmmEET_S4_S4_RKT0_@Base 1.2.31
 _ZNSt3tr18__detail15_Hash_code_baseISsSt4pairIKSsSsESt10_Select1stIS4_ESt8equal_toISsENS_4hashISsEENS0_18_Mod_range_hashingENS0_20_Default_ranged_hashELb0EEC2ERKS6_RKS8_RKSA_RKSB_RKSC_@Base 1.2.31
 _ZNSt3tr18__detail19_Hashtable_iteratorISt4pairIKSsSsELb0ELb0EEC1EPNS0_10_Hash_nodeIS4_Lb0EEEPS8_@Base 1.2.31
 _ZNSt3tr18__detail19_Hashtable_iteratorISt4pairIKSsSsELb0ELb0EEC1EPPNS0_10_Hash_nodeIS4_Lb0EEE@Base 1.2.31
 _ZNSt3tr18__detail19_Hashtable_iteratorISt4pairIKSsSsELb0ELb0EEppEi@Base 1.2.31
 _ZNSt3tr18__detail19_Hashtable_iteratorISt4pairIKSsSsELb0ELb0EEppEv@Base 1.2.31
 _ZNSt3tr18__detail20_Prime_rehash_policyC1Ef@Base 1.2.31
 _ZNSt3tr18__detail24_Hashtable_iterator_baseISt4pairIKSsSsELb0EE14_M_incr_bucketEv@Base 1.2.31
 _ZNSt3tr18__detail24_Hashtable_iterator_baseISt4pairIKSsSsELb0EE7_M_incrEv@Base 1.2.31
 _ZNSt3tr18__detail24_Hashtable_iterator_baseISt4pairIKSsSsELb0EEC2EPNS0_10_Hash_nodeIS4_Lb0EEEPS8_@Base 1.2.31
 _ZNSt3tr18__detail25_Hashtable_const_iteratorISt4pairIKSsSsELb0ELb0EEC1EPNS0_10_Hash_nodeIS4_Lb0EEEPS8_@Base 1.2.31
 _ZNSt3tr18__detail25_Hashtable_const_iteratorISt4pairIKSsSsELb0ELb0EEC1EPPNS0_10_Hash_nodeIS4_Lb0EEE@Base 1.2.31
 _ZNSt3tr18__detail9_Map_baseISsSt4pairIKSsSsESt10_Select1stIS4_ELb1ENS_10_HashtableISsS4_SaIS4_ES6_St8equal_toISsENS_4hashISsEENS0_18_Mod_range_hashingENS0_20_Default_ranged_hashENS0_20_Prime_rehash_policyELb0ELb0ELb1EEEEixERS3_@Base 1.2.31
 _ZNSt3tr18__detaileqISt4pairIKSsSsELb0EEEbRKNS0_24_Hashtable_iterator_baseIT_XT0_EEES9_@Base 1.2.31
 _ZNSt3tr18__detailneISt4pairIKSsSsELb0EEEbRKNS0_24_Hashtable_iterator_baseIT_XT0_EEES9_@Base 1.2.31
 _ZNSt4listIN12kyotocabinet7CacheDB7TranLogESaIS2_EE14_M_create_nodeERKS2_@Base 1.2.31
 _ZNSt4listIN12kyotocabinet7CacheDB7TranLogESaIS2_EE3endEv@Base 1.2.31
 _ZNSt4listIN12kyotocabinet7CacheDB7TranLogESaIS2_EE5clearEv@Base 1.2.31
 _ZNSt4listIN12kyotocabinet7CacheDB7TranLogESaIS2_EE9_M_insertESt14_List_iteratorIS2_ERKS2_@Base 1.2.31
 _ZNSt4listIN12kyotocabinet7CacheDB7TranLogESaIS2_EE9push_backERKS2_@Base 1.2.31
 _ZNSt4listIN12kyotocabinet7CacheDB7TranLogESaIS2_EEC1Ev@Base 1.2.31
 _ZNSt4listIN12kyotocabinet7CacheDB7TranLogESaIS2_EED1Ev@Base 1.2.31
 _ZNSt4listIN12kyotocabinet7ProtoDBINSt3tr113unordered_mapISsSsNS2_4hashISsEESt8equal_toISsESaISt4pairIKSsSsEEEELh16EE7TranLogESaISE_EE14_M_create_nodeERKSE_@Base 1.2.31
 _ZNSt4listIN12kyotocabinet7ProtoDBINSt3tr113unordered_mapISsSsNS2_4hashISsEESt8equal_toISsESaISt4pairIKSsSsEEEELh16EE7TranLogESaISE_EE3endEv@Base 1.2.31
 _ZNSt4listIN12kyotocabinet7ProtoDBINSt3tr113unordered_mapISsSsNS2_4hashISsEESt8equal_toISsESaISt4pairIKSsSsEEEELh16EE7TranLogESaISE_EE5clearEv@Base 1.2.31
 _ZNSt4listIN12kyotocabinet7ProtoDBINSt3tr113unordered_mapISsSsNS2_4hashISsEESt8equal_toISsESaISt4pairIKSsSsEEEELh16EE7TranLogESaISE_EE9_M_insertESt14_List_iteratorISE_ERKSE_@Base 1.2.31
 _ZNSt4listIN12kyotocabinet7ProtoDBINSt3tr113unordered_mapISsSsNS2_4hashISsEESt8equal_toISsESaISt4pairIKSsSsEEEELh16EE7TranLogESaISE_EE9push_backERKSE_@Base 1.2.31
 _ZNSt4listIN12kyotocabinet7ProtoDBINSt3tr113unordered_mapISsSsNS2_4hashISsEESt8equal_toISsESaISt4pairIKSsSsEEEELh16EE7TranLogESaISE_EEC1Ev@Base 1.2.31
 _ZNSt4listIN12kyotocabinet7ProtoDBINSt3tr113unordered_mapISsSsNS2_4hashISsEESt8equal_toISsESaISt4pairIKSsSsEEEELh16EE7TranLogESaISE_EED1Ev@Base 1.2.31
 _ZNSt4listIN12kyotocabinet7ProtoDBISt3mapISsSsSt4lessISsESaISt4pairIKSsSsEEELh17EE7TranLogESaISB_EE14_M_create_nodeERKSB_@Base 1.2.31
 _ZNSt4listIN12kyotocabinet7ProtoDBISt3mapISsSsSt4lessISsESaISt4pairIKSsSsEEELh17EE7TranLogESaISB_EE3endEv@Base 1.2.31
 _ZNSt4listIN12kyotocabinet7ProtoDBISt3mapISsSsSt4lessISsESaISt4pairIKSsSsEEELh17EE7TranLogESaISB_EE5clearEv@Base 1.2.31
 _ZNSt4listIN12kyotocabinet7ProtoDBISt3mapISsSsSt4lessISsESaISt4pairIKSsSsEEELh17EE7TranLogESaISB_EE9_M_insertESt14_List_iteratorISB_ERKSB_@Base 1.2.31
 _ZNSt4listIN12kyotocabinet7ProtoDBISt3mapISsSsSt4lessISsESaISt4pairIKSsSsEEELh17EE7TranLogESaISB_EE9push_backERKSB_@Base 1.2.31
 _ZNSt4listIN12kyotocabinet7ProtoDBISt3mapISsSsSt4lessISsESaISt4pairIKSsSsEEELh17EE7TranLogESaISB_EEC1Ev@Base 1.2.31
 _ZNSt4listIN12kyotocabinet7ProtoDBISt3mapISsSsSt4lessISsESaISt4pairIKSsSsEEELh17EE7TranLogESaISB_EED1Ev@Base 1.2.31
 _ZNSt4listIN12kyotocabinet7StashDB7TranLogESaIS2_EE14_M_create_nodeERKS2_@Base 1.2.31
 _ZNSt4listIN12kyotocabinet7StashDB7TranLogESaIS2_EE3endEv@Base 1.2.31
 _ZNSt4listIN12kyotocabinet7StashDB7TranLogESaIS2_EE5beginEv@Base 1.2.31
 _ZNSt4listIN12kyotocabinet7StashDB7TranLogESaIS2_EE5clearEv@Base 1.2.31
 _ZNSt4listIN12kyotocabinet7StashDB7TranLogESaIS2_EE9_M_insertESt14_List_iteratorIS2_ERKS2_@Base 1.2.31
 _ZNSt4listIN12kyotocabinet7StashDB7TranLogESaIS2_EE9push_backERKS2_@Base 1.2.31
 _ZNSt4listIN12kyotocabinet7StashDB7TranLogESaIS2_EEC1Ev@Base 1.2.31
 _ZNSt4listIN12kyotocabinet7StashDB7TranLogESaIS2_EED1Ev@Base 1.2.31
 _ZNSt4listIPN12kyotocabinet5DirDB6CursorESaIS3_EE14_M_create_nodeERKS3_@Base 1.2.31
 _ZNSt4listIPN12kyotocabinet5DirDB6CursorESaIS3_EE3endEv@Base 1.2.31
 _ZNSt4listIPN12kyotocabinet5DirDB6CursorESaIS3_EE5beginEv@Base 1.2.31
 _ZNSt4listIPN12kyotocabinet5DirDB6CursorESaIS3_EE6removeERKS3_@Base 1.2.31
 _ZNSt4listIPN12kyotocabinet5DirDB6CursorESaIS3_EE8_M_eraseESt14_List_iteratorIS3_E@Base 1.2.31
 _ZNSt4listIPN12kyotocabinet5DirDB6CursorESaIS3_EE9_M_insertESt14_List_iteratorIS3_ERKS3_@Base 1.2.31
 _ZNSt4listIPN12kyotocabinet5DirDB6CursorESaIS3_EE9push_backERKS3_@Base 1.2.31
 _ZNSt4listIPN12kyotocabinet5DirDB6CursorESaIS3_EEC1Ev@Base 1.2.31
 _ZNSt4listIPN12kyotocabinet5DirDB6CursorESaIS3_EED1Ev@Base 1.2.31
 _ZNSt4listIPN12kyotocabinet6HashDB6CursorESaIS3_EE14_M_create_nodeERKS3_@Base 1.2.31
 _ZNSt4listIPN12kyotocabinet6HashDB6CursorESaIS3_EE3endEv@Base 1.2.31
 _ZNSt4listIPN12kyotocabinet6HashDB6CursorESaIS3_EE5beginEv@Base 1.2.31
 _ZNSt4listIPN12kyotocabinet6HashDB6CursorESaIS3_EE6removeERKS3_@Base 1.2.31
 _ZNSt4listIPN12kyotocabinet6HashDB6CursorESaIS3_EE8_M_eraseESt14_List_iteratorIS3_E@Base 1.2.31
 _ZNSt4listIPN12kyotocabinet6HashDB6CursorESaIS3_EE9_M_insertESt14_List_iteratorIS3_ERKS3_@Base 1.2.31
 _ZNSt4listIPN12kyotocabinet6HashDB6CursorESaIS3_EE9push_backERKS3_@Base 1.2.31
 _ZNSt4listIPN12kyotocabinet6HashDB6CursorESaIS3_EEC1Ev@Base 1.2.31
 _ZNSt4listIPN12kyotocabinet6HashDB6CursorESaIS3_EED1Ev@Base 1.2.31
 _ZNSt4listIPN12kyotocabinet7CacheDB6CursorESaIS3_EE14_M_create_nodeERKS3_@Base 1.2.31
 _ZNSt4listIPN12kyotocabinet7CacheDB6CursorESaIS3_EE3endEv@Base 1.2.31
 _ZNSt4listIPN12kyotocabinet7CacheDB6CursorESaIS3_EE5beginEv@Base 1.2.31
 _ZNSt4listIPN12kyotocabinet7CacheDB6CursorESaIS3_EE6removeERKS3_@Base 1.2.31
 _ZNSt4listIPN12kyotocabinet7CacheDB6CursorESaIS3_EE8_M_eraseESt14_List_iteratorIS3_E@Base 1.2.31
 _ZNSt4listIPN12kyotocabinet7CacheDB6CursorESaIS3_EE9_M_insertESt14_List_iteratorIS3_ERKS3_@Base 1.2.31
 _ZNSt4listIPN12kyotocabinet7CacheDB6CursorESaIS3_EE9push_backERKS3_@Base 1.2.31
 _ZNSt4listIPN12kyotocabinet7CacheDB6CursorESaIS3_EEC1Ev@Base 1.2.31
 _ZNSt4listIPN12kyotocabinet7CacheDB6CursorESaIS3_EED1Ev@Base 1.2.31
 _ZNSt4listIPN12kyotocabinet7PlantDBINS0_5DirDBELh65EE6CursorESaIS5_EE14_M_create_nodeERKS5_@Base 1.2.31
 _ZNSt4listIPN12kyotocabinet7PlantDBINS0_5DirDBELh65EE6CursorESaIS5_EE3endEv@Base 1.2.31
 _ZNSt4listIPN12kyotocabinet7PlantDBINS0_5DirDBELh65EE6CursorESaIS5_EE5beginEv@Base 1.2.31
 _ZNSt4listIPN12kyotocabinet7PlantDBINS0_5DirDBELh65EE6CursorESaIS5_EE6removeERKS5_@Base 1.2.31
 _ZNSt4listIPN12kyotocabinet7PlantDBINS0_5DirDBELh65EE6CursorESaIS5_EE8_M_eraseESt14_List_iteratorIS5_E@Base 1.2.31
 _ZNSt4listIPN12kyotocabinet7PlantDBINS0_5DirDBELh65EE6CursorESaIS5_EE9_M_insertESt14_List_iteratorIS5_ERKS5_@Base 1.2.31
 _ZNSt4listIPN12kyotocabinet7PlantDBINS0_5DirDBELh65EE6CursorESaIS5_EE9push_backERKS5_@Base 1.2.31
 _ZNSt4listIPN12kyotocabinet7PlantDBINS0_5DirDBELh65EE6CursorESaIS5_EEC1Ev@Base 1.2.31
 _ZNSt4listIPN12kyotocabinet7PlantDBINS0_5DirDBELh65EE6CursorESaIS5_EED1Ev@Base 1.2.31
 _ZNSt4listIPN12kyotocabinet7PlantDBINS0_6HashDBELh49EE6CursorESaIS5_EE14_M_create_nodeERKS5_@Base 1.2.31
 _ZNSt4listIPN12kyotocabinet7PlantDBINS0_6HashDBELh49EE6CursorESaIS5_EE3endEv@Base 1.2.31
 _ZNSt4listIPN12kyotocabinet7PlantDBINS0_6HashDBELh49EE6CursorESaIS5_EE5beginEv@Base 1.2.31
 _ZNSt4listIPN12kyotocabinet7PlantDBINS0_6HashDBELh49EE6CursorESaIS5_EE6removeERKS5_@Base 1.2.31
 _ZNSt4listIPN12kyotocabinet7PlantDBINS0_6HashDBELh49EE6CursorESaIS5_EE8_M_eraseESt14_List_iteratorIS5_E@Base 1.2.31
 _ZNSt4listIPN12kyotocabinet7PlantDBINS0_6HashDBELh49EE6CursorESaIS5_EE9_M_insertESt14_List_iteratorIS5_ERKS5_@Base 1.2.31
 _ZNSt4listIPN12kyotocabinet7PlantDBINS0_6HashDBELh49EE6CursorESaIS5_EE9push_backERKS5_@Base 1.2.31
 _ZNSt4listIPN12kyotocabinet7PlantDBINS0_6HashDBELh49EE6CursorESaIS5_EEC1Ev@Base 1.2.31
 _ZNSt4listIPN12kyotocabinet7PlantDBINS0_6HashDBELh49EE6CursorESaIS5_EED1Ev@Base 1.2.31
 _ZNSt4listIPN12kyotocabinet7PlantDBINS0_7CacheDBELh33EE6CursorESaIS5_EE14_M_create_nodeERKS5_@Base 1.2.31
 _ZNSt4listIPN12kyotocabinet7PlantDBINS0_7CacheDBELh33EE6CursorESaIS5_EE3endEv@Base 1.2.31
 _ZNSt4listIPN12kyotocabinet7PlantDBINS0_7CacheDBELh33EE6CursorESaIS5_EE5beginEv@Base 1.2.31
 _ZNSt4listIPN12kyotocabinet7PlantDBINS0_7CacheDBELh33EE6CursorESaIS5_EE6removeERKS5_@Base 1.2.31
 _ZNSt4listIPN12kyotocabinet7PlantDBINS0_7CacheDBELh33EE6CursorESaIS5_EE8_M_eraseESt14_List_iteratorIS5_E@Base 1.2.31
 _ZNSt4listIPN12kyotocabinet7PlantDBINS0_7CacheDBELh33EE6CursorESaIS5_EE9_M_insertESt14_List_iteratorIS5_ERKS5_@Base 1.2.31
 _ZNSt4listIPN12kyotocabinet7PlantDBINS0_7CacheDBELh33EE6CursorESaIS5_EE9push_backERKS5_@Base 1.2.31
 _ZNSt4listIPN12kyotocabinet7PlantDBINS0_7CacheDBELh33EE6CursorESaIS5_EEC1Ev@Base 1.2.31
 _ZNSt4listIPN12kyotocabinet7PlantDBINS0_7CacheDBELh33EE6CursorESaIS5_EED1Ev@Base 1.2.31
 _ZNSt4listIPN12kyotocabinet7ProtoDBINSt3tr113unordered_mapISsSsNS2_4hashISsEESt8equal_toISsESaISt4pairIKSsSsEEEELh16EE6CursorESaISF_EE14_M_create_nodeERKSF_@Base 1.2.31
 _ZNSt4listIPN12kyotocabinet7ProtoDBINSt3tr113unordered_mapISsSsNS2_4hashISsEESt8equal_toISsESaISt4pairIKSsSsEEEELh16EE6CursorESaISF_EE3endEv@Base 1.2.31
 _ZNSt4listIPN12kyotocabinet7ProtoDBINSt3tr113unordered_mapISsSsNS2_4hashISsEESt8equal_toISsESaISt4pairIKSsSsEEEELh16EE6CursorESaISF_EE5beginEv@Base 1.2.31
 _ZNSt4listIPN12kyotocabinet7ProtoDBINSt3tr113unordered_mapISsSsNS2_4hashISsEESt8equal_toISsESaISt4pairIKSsSsEEEELh16EE6CursorESaISF_EE6removeERKSF_@Base 1.2.31
 _ZNSt4listIPN12kyotocabinet7ProtoDBINSt3tr113unordered_mapISsSsNS2_4hashISsEESt8equal_toISsESaISt4pairIKSsSsEEEELh16EE6CursorESaISF_EE8_M_eraseESt14_List_iteratorISF_E@Base 1.2.31
 _ZNSt4listIPN12kyotocabinet7ProtoDBINSt3tr113unordered_mapISsSsNS2_4hashISsEESt8equal_toISsESaISt4pairIKSsSsEEEELh16EE6CursorESaISF_EE9_M_insertESt14_List_iteratorISF_ERKSF_@Base 1.2.31
 _ZNSt4listIPN12kyotocabinet7ProtoDBINSt3tr113unordered_mapISsSsNS2_4hashISsEESt8equal_toISsESaISt4pairIKSsSsEEEELh16EE6CursorESaISF_EE9push_backERKSF_@Base 1.2.31
 _ZNSt4listIPN12kyotocabinet7ProtoDBINSt3tr113unordered_mapISsSsNS2_4hashISsEESt8equal_toISsESaISt4pairIKSsSsEEEELh16EE6CursorESaISF_EEC1Ev@Base 1.2.31
 _ZNSt4listIPN12kyotocabinet7ProtoDBINSt3tr113unordered_mapISsSsNS2_4hashISsEESt8equal_toISsESaISt4pairIKSsSsEEEELh16EE6CursorESaISF_EED1Ev@Base 1.2.31
 _ZNSt4listIPN12kyotocabinet7ProtoDBISt3mapISsSsSt4lessISsESaISt4pairIKSsSsEEELh17EE6CursorESaISC_EE14_M_create_nodeERKSC_@Base 1.2.31
 _ZNSt4listIPN12kyotocabinet7ProtoDBISt3mapISsSsSt4lessISsESaISt4pairIKSsSsEEELh17EE6CursorESaISC_EE3endEv@Base 1.2.31
 _ZNSt4listIPN12kyotocabinet7ProtoDBISt3mapISsSsSt4lessISsESaISt4pairIKSsSsEEELh17EE6CursorESaISC_EE5beginEv@Base 1.2.31
 _ZNSt4listIPN12kyotocabinet7ProtoDBISt3mapISsSsSt4lessISsESaISt4pairIKSsSsEEELh17EE6CursorESaISC_EE6removeERKSC_@Base 1.2.31
 _ZNSt4listIPN12kyotocabinet7ProtoDBISt3mapISsSsSt4lessISsESaISt4pairIKSsSsEEELh17EE6CursorESaISC_EE8_M_eraseESt14_List_iteratorISC_E@Base 1.2.31
 _ZNSt4listIPN12kyotocabinet7ProtoDBISt3mapISsSsSt4lessISsESaISt4pairIKSsSsEEELh17EE6CursorESaISC_EE9_M_insertESt14_List_iteratorISC_ERKSC_@Base 1.2.31
 _ZNSt4listIPN12kyotocabinet7ProtoDBISt3mapISsSsSt4lessISsESaISt4pairIKSsSsEEELh17EE6CursorESaISC_EE9push_backERKSC_@Base 1.2.31
 _ZNSt4listIPN12kyotocabinet7ProtoDBISt3mapISsSsSt4lessISsESaISt4pairIKSsSsEEELh17EE6CursorESaISC_EEC1Ev@Base 1.2.31
 _ZNSt4listIPN12kyotocabinet7ProtoDBISt3mapISsSsSt4lessISsESaISt4pairIKSsSsEEELh17EE6CursorESaISC_EED1Ev@Base 1.2.31
 _ZNSt4listIPN12kyotocabinet7StashDB6CursorESaIS3_EE14_M_create_nodeERKS3_@Base 1.2.31
 _ZNSt4listIPN12kyotocabinet7StashDB6CursorESaIS3_EE3endEv@Base 1.2.31
 _ZNSt4listIPN12kyotocabinet7StashDB6CursorESaIS3_EE5beginEv@Base 1.2.31
 _ZNSt4listIPN12kyotocabinet7StashDB6CursorESaIS3_EE6removeERKS3_@Base 1.2.31
 _ZNSt4listIPN12kyotocabinet7StashDB6CursorESaIS3_EE8_M_eraseESt14_List_iteratorIS3_E@Base 1.2.31
 _ZNSt4listIPN12kyotocabinet7StashDB6CursorESaIS3_EE9_M_insertESt14_List_iteratorIS3_ERKS3_@Base 1.2.31
 _ZNSt4listIPN12kyotocabinet7StashDB6CursorESaIS3_EE9push_backERKS3_@Base 1.2.31
 _ZNSt4listIPN12kyotocabinet7StashDB6CursorESaIS3_EEC1Ev@Base 1.2.31
 _ZNSt4listIPN12kyotocabinet7StashDB6CursorESaIS3_EED1Ev@Base 1.2.31
 _ZNSt4pairIKSsSsEC1ERKS1_@Base 1.2.31
 _ZNSt4pairIKSsSsEC1ERS0_S2_@Base 1.2.31
 _ZNSt4pairIKSsSsEC1ISsSsEERKS_IT_T0_E@Base 1.2.31
 _ZNSt4pairIKSsSsED1Ev@Base 1.2.31
 _ZNSt4pairISsSsEC1ERKSsS2_@Base 1.2.31
 _ZNSt4pairISsSsED1Ev@Base 1.2.31
 _ZNSt4pairISt17_Rb_tree_iteratorIN12kyotocabinet6HashDB9FreeBlockEEbEC1ERKS4_RKb@Base 1.2.31
 _ZNSt4pairISt17_Rb_tree_iteratorIS_IKSsSsEES3_EC1ERKS3_S6_@Base 1.2.31
 _ZNSt4pairISt17_Rb_tree_iteratorIS_IKSsSsEEbEC1ERKS3_RKb@Base 1.2.31
 _ZNSt4pairISt17_Rb_tree_iteratorIiEbEC1ERKS1_RKb@Base 1.2.31
 _ZNSt4pairISt17_Rb_tree_iteratorImEbEC1ERKS1_RKb@Base 1.2.31
 _ZNSt4pairISt23_Rb_tree_const_iteratorIN12kyotocabinet6HashDB9FreeBlockEEbEC1ERKS4_RKb@Base 1.2.31
 _ZNSt4pairISt23_Rb_tree_const_iteratorIiEbEC1ERKS1_RKb@Base 1.2.31
 _ZNSt4pairISt23_Rb_tree_const_iteratorImEbEC1ERKS1_RKb@Base 1.2.31
 _ZNSt4pairIbiEC1ERKbRKi@Base 1.2.31
 _ZNSt4pairIbmEC1ERKbRKm@Base 1.2.31
 _ZNSt4pairIbmEC1IbiEERKS_IT_T0_E@Base 1.2.31
 _ZNSt6vectorIN12kyotocabinet10WALMessageESaIS1_EE13_M_insert_auxEN9__gnu_cxx17__normal_iteratorIPS1_S3_EERKS1_@Base 1.2.31
 _ZNSt6vectorIN12kyotocabinet10WALMessageESaIS1_EE3endEv@Base 1.2.31
 _ZNSt6vectorIN12kyotocabinet10WALMessageESaIS1_EE5beginEv@Base 1.2.31
 _ZNSt6vectorIN12kyotocabinet10WALMessageESaIS1_EE9push_backERKS1_@Base 1.2.31
 _ZNSt6vectorIN12kyotocabinet10WALMessageESaIS1_EEC1Ev@Base 1.2.31
 _ZNSt6vectorIN12kyotocabinet10WALMessageESaIS1_EED1Ev@Base 1.2.31
 _ZNSt6vectorIN12kyotocabinet10WALMessageESaIS1_EEixEm@Base 1.2.31
 _ZNSt6vectorIN12kyotocabinet6PolyDB9MergeLineESaIS2_EE13_M_insert_auxEN9__gnu_cxx17__normal_iteratorIPS2_S4_EERKS2_@Base 1.2.31
 _ZNSt6vectorIN12kyotocabinet6PolyDB9MergeLineESaIS2_EE3endEv@Base 1.2.31
 _ZNSt6vectorIN12kyotocabinet6PolyDB9MergeLineESaIS2_EE5beginEv@Base 1.2.31
 _ZNSt6vectorIN12kyotocabinet6PolyDB9MergeLineESaIS2_EE8pop_backEv@Base 1.2.31
 _ZNSt6vectorIN12kyotocabinet6PolyDB9MergeLineESaIS2_EE9push_backERKS2_@Base 1.2.31
 _ZNSt6vectorIN12kyotocabinet6PolyDB9MergeLineESaIS2_EEC1ERKS4_@Base 1.2.31
 _ZNSt6vectorIN12kyotocabinet6PolyDB9MergeLineESaIS2_EEC1Ev@Base 1.2.31
 _ZNSt6vectorIN12kyotocabinet6PolyDB9MergeLineESaIS2_EED1Ev@Base 1.2.31
 _ZNSt6vectorIPN12kyotocabinet7PlantDBINS0_5DirDBELh65EE4LinkESaIS5_EE13_M_insert_auxEN9__gnu_cxx17__normal_iteratorIPS5_S7_EERKS5_@Base 1.2.31
 _ZNSt6vectorIPN12kyotocabinet7PlantDBINS0_5DirDBELh65EE4LinkESaIS5_EE20_M_allocate_and_copyIPS5_EES9_mT_SA_@Base 1.2.31
 _ZNSt6vectorIPN12kyotocabinet7PlantDBINS0_5DirDBELh65EE4LinkESaIS5_EE3endEv@Base 1.2.31
 _ZNSt6vectorIPN12kyotocabinet7PlantDBINS0_5DirDBELh65EE4LinkESaIS5_EE4backEv@Base 1.2.31
 _ZNSt6vectorIPN12kyotocabinet7PlantDBINS0_5DirDBELh65EE4LinkESaIS5_EE5beginEv@Base 1.2.31
 _ZNSt6vectorIPN12kyotocabinet7PlantDBINS0_5DirDBELh65EE4LinkESaIS5_EE5eraseEN9__gnu_cxx17__normal_iteratorIPS5_S7_EE@Base 1.2.31
 _ZNSt6vectorIPN12kyotocabinet7PlantDBINS0_5DirDBELh65EE4LinkESaIS5_EE6insertEN9__gnu_cxx17__normal_iteratorIPS5_S7_EERKS5_@Base 1.2.31
 _ZNSt6vectorIPN12kyotocabinet7PlantDBINS0_5DirDBELh65EE4LinkESaIS5_EE7reserveEm@Base 1.2.31
 _ZNSt6vectorIPN12kyotocabinet7PlantDBINS0_5DirDBELh65EE4LinkESaIS5_EE8pop_backEv@Base 1.2.31
 _ZNSt6vectorIPN12kyotocabinet7PlantDBINS0_5DirDBELh65EE4LinkESaIS5_EE9push_backERKS5_@Base 1.2.31
 _ZNSt6vectorIPN12kyotocabinet7PlantDBINS0_5DirDBELh65EE4LinkESaIS5_EEC1Ev@Base 1.2.31
 _ZNSt6vectorIPN12kyotocabinet7PlantDBINS0_5DirDBELh65EE4LinkESaIS5_EED1Ev@Base 1.2.31
 _ZNSt6vectorIPN12kyotocabinet7PlantDBINS0_5DirDBELh65EE6RecordESaIS5_EE13_M_insert_auxEN9__gnu_cxx17__normal_iteratorIPS5_S7_EERKS5_@Base 1.2.31
 _ZNSt6vectorIPN12kyotocabinet7PlantDBINS0_5DirDBELh65EE6RecordESaIS5_EE15_M_erase_at_endEPS5_@Base 1.2.31
 _ZNSt6vectorIPN12kyotocabinet7PlantDBINS0_5DirDBELh65EE6RecordESaIS5_EE20_M_allocate_and_copyIPS5_EES9_mT_SA_@Base 1.2.31
 _ZNSt6vectorIPN12kyotocabinet7PlantDBINS0_5DirDBELh65EE6RecordESaIS5_EE3endEv@Base 1.2.31
 _ZNSt6vectorIPN12kyotocabinet7PlantDBINS0_5DirDBELh65EE6RecordESaIS5_EE4backEv@Base 1.2.31
 _ZNSt6vectorIPN12kyotocabinet7PlantDBINS0_5DirDBELh65EE6RecordESaIS5_EE5beginEv@Base 1.2.31
 _ZNSt6vectorIPN12kyotocabinet7PlantDBINS0_5DirDBELh65EE6RecordESaIS5_EE5eraseEN9__gnu_cxx17__normal_iteratorIPS5_S7_EE@Base 1.2.31
 _ZNSt6vectorIPN12kyotocabinet7PlantDBINS0_5DirDBELh65EE6RecordESaIS5_EE5eraseEN9__gnu_cxx17__normal_iteratorIPS5_S7_EESB_@Base 1.2.31
 _ZNSt6vectorIPN12kyotocabinet7PlantDBINS0_5DirDBELh65EE6RecordESaIS5_EE5frontEv@Base 1.2.31
 _ZNSt6vectorIPN12kyotocabinet7PlantDBINS0_5DirDBELh65EE6RecordESaIS5_EE6insertEN9__gnu_cxx17__normal_iteratorIPS5_S7_EERKS5_@Base 1.2.31
 _ZNSt6vectorIPN12kyotocabinet7PlantDBINS0_5DirDBELh65EE6RecordESaIS5_EE7reserveEm@Base 1.2.31
 _ZNSt6vectorIPN12kyotocabinet7PlantDBINS0_5DirDBELh65EE6RecordESaIS5_EE9push_backERKS5_@Base 1.2.31
 _ZNSt6vectorIPN12kyotocabinet7PlantDBINS0_5DirDBELh65EE6RecordESaIS5_EEC1Ev@Base 1.2.31
 _ZNSt6vectorIPN12kyotocabinet7PlantDBINS0_5DirDBELh65EE6RecordESaIS5_EED1Ev@Base 1.2.31
 _ZNSt6vectorIPN12kyotocabinet7PlantDBINS0_6HashDBELh49EE4LinkESaIS5_EE13_M_insert_auxEN9__gnu_cxx17__normal_iteratorIPS5_S7_EERKS5_@Base 1.2.31
 _ZNSt6vectorIPN12kyotocabinet7PlantDBINS0_6HashDBELh49EE4LinkESaIS5_EE20_M_allocate_and_copyIPS5_EES9_mT_SA_@Base 1.2.31
 _ZNSt6vectorIPN12kyotocabinet7PlantDBINS0_6HashDBELh49EE4LinkESaIS5_EE3endEv@Base 1.2.31
 _ZNSt6vectorIPN12kyotocabinet7PlantDBINS0_6HashDBELh49EE4LinkESaIS5_EE4backEv@Base 1.2.31
 _ZNSt6vectorIPN12kyotocabinet7PlantDBINS0_6HashDBELh49EE4LinkESaIS5_EE5beginEv@Base 1.2.31
 _ZNSt6vectorIPN12kyotocabinet7PlantDBINS0_6HashDBELh49EE4LinkESaIS5_EE5eraseEN9__gnu_cxx17__normal_iteratorIPS5_S7_EE@Base 1.2.31
 _ZNSt6vectorIPN12kyotocabinet7PlantDBINS0_6HashDBELh49EE4LinkESaIS5_EE6insertEN9__gnu_cxx17__normal_iteratorIPS5_S7_EERKS5_@Base 1.2.31
 _ZNSt6vectorIPN12kyotocabinet7PlantDBINS0_6HashDBELh49EE4LinkESaIS5_EE7reserveEm@Base 1.2.31
 _ZNSt6vectorIPN12kyotocabinet7PlantDBINS0_6HashDBELh49EE4LinkESaIS5_EE8pop_backEv@Base 1.2.31
 _ZNSt6vectorIPN12kyotocabinet7PlantDBINS0_6HashDBELh49EE4LinkESaIS5_EE9push_backERKS5_@Base 1.2.31
 _ZNSt6vectorIPN12kyotocabinet7PlantDBINS0_6HashDBELh49EE4LinkESaIS5_EEC1Ev@Base 1.2.31
 _ZNSt6vectorIPN12kyotocabinet7PlantDBINS0_6HashDBELh49EE4LinkESaIS5_EED1Ev@Base 1.2.31
 _ZNSt6vectorIPN12kyotocabinet7PlantDBINS0_6HashDBELh49EE6RecordESaIS5_EE13_M_insert_auxEN9__gnu_cxx17__normal_iteratorIPS5_S7_EERKS5_@Base 1.2.31
 _ZNSt6vectorIPN12kyotocabinet7PlantDBINS0_6HashDBELh49EE6RecordESaIS5_EE15_M_erase_at_endEPS5_@Base 1.2.31
 _ZNSt6vectorIPN12kyotocabinet7PlantDBINS0_6HashDBELh49EE6RecordESaIS5_EE20_M_allocate_and_copyIPS5_EES9_mT_SA_@Base 1.2.31
 _ZNSt6vectorIPN12kyotocabinet7PlantDBINS0_6HashDBELh49EE6RecordESaIS5_EE3endEv@Base 1.2.31
 _ZNSt6vectorIPN12kyotocabinet7PlantDBINS0_6HashDBELh49EE6RecordESaIS5_EE4backEv@Base 1.2.31
 _ZNSt6vectorIPN12kyotocabinet7PlantDBINS0_6HashDBELh49EE6RecordESaIS5_EE5beginEv@Base 1.2.31
 _ZNSt6vectorIPN12kyotocabinet7PlantDBINS0_6HashDBELh49EE6RecordESaIS5_EE5eraseEN9__gnu_cxx17__normal_iteratorIPS5_S7_EE@Base 1.2.31
 _ZNSt6vectorIPN12kyotocabinet7PlantDBINS0_6HashDBELh49EE6RecordESaIS5_EE5eraseEN9__gnu_cxx17__normal_iteratorIPS5_S7_EESB_@Base 1.2.31
 _ZNSt6vectorIPN12kyotocabinet7PlantDBINS0_6HashDBELh49EE6RecordESaIS5_EE5frontEv@Base 1.2.31
 _ZNSt6vectorIPN12kyotocabinet7PlantDBINS0_6HashDBELh49EE6RecordESaIS5_EE6insertEN9__gnu_cxx17__normal_iteratorIPS5_S7_EERKS5_@Base 1.2.31
 _ZNSt6vectorIPN12kyotocabinet7PlantDBINS0_6HashDBELh49EE6RecordESaIS5_EE7reserveEm@Base 1.2.31
 _ZNSt6vectorIPN12kyotocabinet7PlantDBINS0_6HashDBELh49EE6RecordESaIS5_EE9push_backERKS5_@Base 1.2.31
 _ZNSt6vectorIPN12kyotocabinet7PlantDBINS0_6HashDBELh49EE6RecordESaIS5_EEC1Ev@Base 1.2.31
 _ZNSt6vectorIPN12kyotocabinet7PlantDBINS0_6HashDBELh49EE6RecordESaIS5_EED1Ev@Base 1.2.31
 _ZNSt6vectorIPN12kyotocabinet7PlantDBINS0_7CacheDBELh33EE4LinkESaIS5_EE13_M_insert_auxEN9__gnu_cxx17__normal_iteratorIPS5_S7_EERKS5_@Base 1.2.31
 _ZNSt6vectorIPN12kyotocabinet7PlantDBINS0_7CacheDBELh33EE4LinkESaIS5_EE20_M_allocate_and_copyIPS5_EES9_mT_SA_@Base 1.2.31
 _ZNSt6vectorIPN12kyotocabinet7PlantDBINS0_7CacheDBELh33EE4LinkESaIS5_EE3endEv@Base 1.2.31
 _ZNSt6vectorIPN12kyotocabinet7PlantDBINS0_7CacheDBELh33EE4LinkESaIS5_EE4backEv@Base 1.2.31
 _ZNSt6vectorIPN12kyotocabinet7PlantDBINS0_7CacheDBELh33EE4LinkESaIS5_EE5beginEv@Base 1.2.31
 _ZNSt6vectorIPN12kyotocabinet7PlantDBINS0_7CacheDBELh33EE4LinkESaIS5_EE5eraseEN9__gnu_cxx17__normal_iteratorIPS5_S7_EE@Base 1.2.31
 _ZNSt6vectorIPN12kyotocabinet7PlantDBINS0_7CacheDBELh33EE4LinkESaIS5_EE6insertEN9__gnu_cxx17__normal_iteratorIPS5_S7_EERKS5_@Base 1.2.31
 _ZNSt6vectorIPN12kyotocabinet7PlantDBINS0_7CacheDBELh33EE4LinkESaIS5_EE7reserveEm@Base 1.2.31
 _ZNSt6vectorIPN12kyotocabinet7PlantDBINS0_7CacheDBELh33EE4LinkESaIS5_EE8pop_backEv@Base 1.2.31
 _ZNSt6vectorIPN12kyotocabinet7PlantDBINS0_7CacheDBELh33EE4LinkESaIS5_EE9push_backERKS5_@Base 1.2.31
 _ZNSt6vectorIPN12kyotocabinet7PlantDBINS0_7CacheDBELh33EE4LinkESaIS5_EEC1Ev@Base 1.2.31
 _ZNSt6vectorIPN12kyotocabinet7PlantDBINS0_7CacheDBELh33EE4LinkESaIS5_EED1Ev@Base 1.2.31
 _ZNSt6vectorIPN12kyotocabinet7PlantDBINS0_7CacheDBELh33EE6RecordESaIS5_EE13_M_insert_auxEN9__gnu_cxx17__normal_iteratorIPS5_S7_EERKS5_@Base 1.2.31
 _ZNSt6vectorIPN12kyotocabinet7PlantDBINS0_7CacheDBELh33EE6RecordESaIS5_EE15_M_erase_at_endEPS5_@Base 1.2.31
 _ZNSt6vectorIPN12kyotocabinet7PlantDBINS0_7CacheDBELh33EE6RecordESaIS5_EE20_M_allocate_and_copyIPS5_EES9_mT_SA_@Base 1.2.31
 _ZNSt6vectorIPN12kyotocabinet7PlantDBINS0_7CacheDBELh33EE6RecordESaIS5_EE3endEv@Base 1.2.31
 _ZNSt6vectorIPN12kyotocabinet7PlantDBINS0_7CacheDBELh33EE6RecordESaIS5_EE4backEv@Base 1.2.31
 _ZNSt6vectorIPN12kyotocabinet7PlantDBINS0_7CacheDBELh33EE6RecordESaIS5_EE5beginEv@Base 1.2.31
 _ZNSt6vectorIPN12kyotocabinet7PlantDBINS0_7CacheDBELh33EE6RecordESaIS5_EE5eraseEN9__gnu_cxx17__normal_iteratorIPS5_S7_EE@Base 1.2.31
 _ZNSt6vectorIPN12kyotocabinet7PlantDBINS0_7CacheDBELh33EE6RecordESaIS5_EE5eraseEN9__gnu_cxx17__normal_iteratorIPS5_S7_EESB_@Base 1.2.31
 _ZNSt6vectorIPN12kyotocabinet7PlantDBINS0_7CacheDBELh33EE6RecordESaIS5_EE5frontEv@Base 1.2.31
 _ZNSt6vectorIPN12kyotocabinet7PlantDBINS0_7CacheDBELh33EE6RecordESaIS5_EE6insertEN9__gnu_cxx17__normal_iteratorIPS5_S7_EERKS5_@Base 1.2.31
 _ZNSt6vectorIPN12kyotocabinet7PlantDBINS0_7CacheDBELh33EE6RecordESaIS5_EE7reserveEm@Base 1.2.31
 _ZNSt6vectorIPN12kyotocabinet7PlantDBINS0_7CacheDBELh33EE6RecordESaIS5_EE9push_backERKS5_@Base 1.2.31
 _ZNSt6vectorIPN12kyotocabinet7PlantDBINS0_7CacheDBELh33EE6RecordESaIS5_EEC1Ev@Base 1.2.31
 _ZNSt6vectorIPN12kyotocabinet7PlantDBINS0_7CacheDBELh33EE6RecordESaIS5_EED1Ev@Base 1.2.31
 _ZNSt6vectorISsSaISsEE13_M_insert_auxEN9__gnu_cxx17__normal_iteratorIPSsS1_EERKSs@Base 1.2.31
 _ZNSt6vectorISsSaISsEE15_M_erase_at_endEPSs@Base 1.2.31
 _ZNSt6vectorISsSaISsEE20_M_allocate_and_copyIPSsEES3_mT_S4_@Base 1.2.32
 _ZNSt6vectorISsSaISsEE3endEv@Base 1.2.31
 _ZNSt6vectorISsSaISsEE4backEv@Base 1.2.31
 _ZNSt6vectorISsSaISsEE5beginEv@Base 1.2.31
 _ZNSt6vectorISsSaISsEE5clearEv@Base 1.2.31
 _ZNSt6vectorISsSaISsEE7reserveEm@Base 1.2.32
 _ZNSt6vectorISsSaISsEE8pop_backEv@Base 1.2.31
 _ZNSt6vectorISsSaISsEE9push_backERKSs@Base 1.2.31
 _ZNSt6vectorISsSaISsEEC1Ev@Base 1.2.31
 _ZNSt6vectorISsSaISsEED1Ev@Base 1.2.31
 _ZNSt6vectorISsSaISsEEixEm@Base 1.2.31
 _ZNSt8_Rb_treeIN12kyotocabinet6HashDB9FreeBlockES2_St9_IdentityIS2_ESt4lessIS2_ESaIS2_EE10_M_insert_EPKSt18_Rb_tree_node_baseSB_RKS2_@Base 1.2.31
 _ZNSt8_Rb_treeIN12kyotocabinet6HashDB9FreeBlockES2_St9_IdentityIS2_ESt4lessIS2_ESaIS2_EE11_M_get_nodeEv@Base 1.2.31
 _ZNSt8_Rb_treeIN12kyotocabinet6HashDB9FreeBlockES2_St9_IdentityIS2_ESt4lessIS2_ESaIS2_EE11_M_leftmostEv@Base 1.2.31
 _ZNSt8_Rb_treeIN12kyotocabinet6HashDB9FreeBlockES2_St9_IdentityIS2_ESt4lessIS2_ESaIS2_EE11_M_put_nodeEPSt13_Rb_tree_nodeIS2_E@Base 1.2.31
 _ZNSt8_Rb_treeIN12kyotocabinet6HashDB9FreeBlockES2_St9_IdentityIS2_ESt4lessIS2_ESaIS2_EE11upper_boundERKS2_@Base 1.2.31
 _ZNSt8_Rb_treeIN12kyotocabinet6HashDB9FreeBlockES2_St9_IdentityIS2_ESt4lessIS2_ESaIS2_EE12_M_rightmostEv@Base 1.2.31
 _ZNSt8_Rb_treeIN12kyotocabinet6HashDB9FreeBlockES2_St9_IdentityIS2_ESt4lessIS2_ESaIS2_EE13_Rb_tree_implIS6_Lb0EE13_M_initializeEv@Base 1.2.31
 _ZNSt8_Rb_treeIN12kyotocabinet6HashDB9FreeBlockES2_St9_IdentityIS2_ESt4lessIS2_ESaIS2_EE13_Rb_tree_implIS6_Lb0EEC1Ev@Base 1.2.31
 _ZNSt8_Rb_treeIN12kyotocabinet6HashDB9FreeBlockES2_St9_IdentityIS2_ESt4lessIS2_ESaIS2_EE13_Rb_tree_implIS6_Lb0EED1Ev@Base 1.2.31
 _ZNSt8_Rb_treeIN12kyotocabinet6HashDB9FreeBlockES2_St9_IdentityIS2_ESt4lessIS2_ESaIS2_EE14_M_create_nodeERKS2_@Base 1.2.31
 _ZNSt8_Rb_treeIN12kyotocabinet6HashDB9FreeBlockES2_St9_IdentityIS2_ESt4lessIS2_ESaIS2_EE14_M_upper_boundEPSt13_Rb_tree_nodeIS2_ESB_RKS2_@Base 1.2.31
 _ZNSt8_Rb_treeIN12kyotocabinet6HashDB9FreeBlockES2_St9_IdentityIS2_ESt4lessIS2_ESaIS2_EE15_M_destroy_nodeEPSt13_Rb_tree_nodeIS2_E@Base 1.2.31
 _ZNSt8_Rb_treeIN12kyotocabinet6HashDB9FreeBlockES2_St9_IdentityIS2_ESt4lessIS2_ESaIS2_EE16_M_insert_uniqueERKS2_@Base 1.2.31
 _ZNSt8_Rb_treeIN12kyotocabinet6HashDB9FreeBlockES2_St9_IdentityIS2_ESt4lessIS2_ESaIS2_EE21_M_get_Node_allocatorEv@Base 1.2.31
 _ZNSt8_Rb_treeIN12kyotocabinet6HashDB9FreeBlockES2_St9_IdentityIS2_ESt4lessIS2_ESaIS2_EE4swapERS8_@Base 1.2.31
 _ZNSt8_Rb_treeIN12kyotocabinet6HashDB9FreeBlockES2_St9_IdentityIS2_ESt4lessIS2_ESaIS2_EE5beginEv@Base 1.2.31
 _ZNSt8_Rb_treeIN12kyotocabinet6HashDB9FreeBlockES2_St9_IdentityIS2_ESt4lessIS2_ESaIS2_EE5clearEv@Base 1.2.31
 _ZNSt8_Rb_treeIN12kyotocabinet6HashDB9FreeBlockES2_St9_IdentityIS2_ESt4lessIS2_ESaIS2_EE5eraseESt23_Rb_tree_const_iteratorIS2_E@Base 1.2.31
 _ZNSt8_Rb_treeIN12kyotocabinet6HashDB9FreeBlockES2_St9_IdentityIS2_ESt4lessIS2_ESaIS2_EE6_M_endEv@Base 1.2.31
 _ZNSt8_Rb_treeIN12kyotocabinet6HashDB9FreeBlockES2_St9_IdentityIS2_ESt4lessIS2_ESaIS2_EE6_S_keyEPKSt13_Rb_tree_nodeIS2_E@Base 1.2.31
 _ZNSt8_Rb_treeIN12kyotocabinet6HashDB9FreeBlockES2_St9_IdentityIS2_ESt4lessIS2_ESaIS2_EE6_S_keyEPKSt18_Rb_tree_node_base@Base 1.2.31
 _ZNSt8_Rb_treeIN12kyotocabinet6HashDB9FreeBlockES2_St9_IdentityIS2_ESt4lessIS2_ESaIS2_EE7_M_rootEv@Base 1.2.31
 _ZNSt8_Rb_treeIN12kyotocabinet6HashDB9FreeBlockES2_St9_IdentityIS2_ESt4lessIS2_ESaIS2_EE7_S_leftEPSt18_Rb_tree_node_base@Base 1.2.31
 _ZNSt8_Rb_treeIN12kyotocabinet6HashDB9FreeBlockES2_St9_IdentityIS2_ESt4lessIS2_ESaIS2_EE8_M_beginEv@Base 1.2.31
 _ZNSt8_Rb_treeIN12kyotocabinet6HashDB9FreeBlockES2_St9_IdentityIS2_ESt4lessIS2_ESaIS2_EE8_M_eraseEPSt13_Rb_tree_nodeIS2_E@Base 1.2.31
 _ZNSt8_Rb_treeIN12kyotocabinet6HashDB9FreeBlockES2_St9_IdentityIS2_ESt4lessIS2_ESaIS2_EE8_S_rightEPSt18_Rb_tree_node_base@Base 1.2.31
 _ZNSt8_Rb_treeIN12kyotocabinet6HashDB9FreeBlockES2_St9_IdentityIS2_ESt4lessIS2_ESaIS2_EE8_S_valueEPKSt13_Rb_tree_nodeIS2_E@Base 1.2.31
 _ZNSt8_Rb_treeIN12kyotocabinet6HashDB9FreeBlockES2_St9_IdentityIS2_ESt4lessIS2_ESaIS2_EE8_S_valueEPKSt18_Rb_tree_node_base@Base 1.2.31
 _ZNSt8_Rb_treeIN12kyotocabinet6HashDB9FreeBlockES2_St9_IdentityIS2_ESt4lessIS2_ESaIS2_EEC1Ev@Base 1.2.31
 _ZNSt8_Rb_treeIN12kyotocabinet6HashDB9FreeBlockES2_St9_IdentityIS2_ESt4lessIS2_ESaIS2_EED1Ev@Base 1.2.31
 _ZNSt8_Rb_treeISsSt4pairIKSsSsESt10_Select1stIS2_ESt4lessISsESaIS2_EE10_M_insert_EPKSt18_Rb_tree_node_baseSB_RKS2_@Base 1.2.31
 _ZNSt8_Rb_treeISsSt4pairIKSsSsESt10_Select1stIS2_ESt4lessISsESaIS2_EE11_M_get_nodeEv@Base 1.2.31
 _ZNSt8_Rb_treeISsSt4pairIKSsSsESt10_Select1stIS2_ESt4lessISsESaIS2_EE11_M_leftmostEv@Base 1.2.31
 _ZNSt8_Rb_treeISsSt4pairIKSsSsESt10_Select1stIS2_ESt4lessISsESaIS2_EE11_M_put_nodeEPSt13_Rb_tree_nodeIS2_E@Base 1.2.31
 _ZNSt8_Rb_treeISsSt4pairIKSsSsESt10_Select1stIS2_ESt4lessISsESaIS2_EE11equal_rangeERS1_@Base 1.2.31
 _ZNSt8_Rb_treeISsSt4pairIKSsSsESt10_Select1stIS2_ESt4lessISsESaIS2_EE11lower_boundERS1_@Base 1.2.31
 _ZNSt8_Rb_treeISsSt4pairIKSsSsESt10_Select1stIS2_ESt4lessISsESaIS2_EE11upper_boundERS1_@Base 1.2.31
 _ZNSt8_Rb_treeISsSt4pairIKSsSsESt10_Select1stIS2_ESt4lessISsESaIS2_EE12_M_rightmostEv@Base 1.2.31
 _ZNSt8_Rb_treeISsSt4pairIKSsSsESt10_Select1stIS2_ESt4lessISsESaIS2_EE13_Rb_tree_implIS6_Lb0EE13_M_initializeEv@Base 1.2.31
 _ZNSt8_Rb_treeISsSt4pairIKSsSsESt10_Select1stIS2_ESt4lessISsESaIS2_EE13_Rb_tree_implIS6_Lb0EEC1Ev@Base 1.2.31
 _ZNSt8_Rb_treeISsSt4pairIKSsSsESt10_Select1stIS2_ESt4lessISsESaIS2_EE13_Rb_tree_implIS6_Lb0EED1Ev@Base 1.2.31
 _ZNSt8_Rb_treeISsSt4pairIKSsSsESt10_Select1stIS2_ESt4lessISsESaIS2_EE14_M_create_nodeERKS2_@Base 1.2.31
 _ZNSt8_Rb_treeISsSt4pairIKSsSsESt10_Select1stIS2_ESt4lessISsESaIS2_EE14_M_lower_boundEPSt13_Rb_tree_nodeIS2_ESB_RS1_@Base 1.2.31
 _ZNSt8_Rb_treeISsSt4pairIKSsSsESt10_Select1stIS2_ESt4lessISsESaIS2_EE14_M_upper_boundEPSt13_Rb_tree_nodeIS2_ESB_RS1_@Base 1.2.31
 _ZNSt8_Rb_treeISsSt4pairIKSsSsESt10_Select1stIS2_ESt4lessISsESaIS2_EE15_M_destroy_nodeEPSt13_Rb_tree_nodeIS2_E@Base 1.2.31
 _ZNSt8_Rb_treeISsSt4pairIKSsSsESt10_Select1stIS2_ESt4lessISsESaIS2_EE16_M_insert_uniqueERKS2_@Base 1.2.31
 _ZNSt8_Rb_treeISsSt4pairIKSsSsESt10_Select1stIS2_ESt4lessISsESaIS2_EE17_M_insert_unique_ESt23_Rb_tree_const_iteratorIS2_ERKS2_@Base 1.2.31
 _ZNSt8_Rb_treeISsSt4pairIKSsSsESt10_Select1stIS2_ESt4lessISsESaIS2_EE3endEv@Base 1.2.31
 _ZNSt8_Rb_treeISsSt4pairIKSsSsESt10_Select1stIS2_ESt4lessISsESaIS2_EE4findERS1_@Base 1.2.31
 _ZNSt8_Rb_treeISsSt4pairIKSsSsESt10_Select1stIS2_ESt4lessISsESaIS2_EE5beginEv@Base 1.2.31
 _ZNSt8_Rb_treeISsSt4pairIKSsSsESt10_Select1stIS2_ESt4lessISsESaIS2_EE5clearEv@Base 1.2.31
 _ZNSt8_Rb_treeISsSt4pairIKSsSsESt10_Select1stIS2_ESt4lessISsESaIS2_EE5eraseERS1_@Base 1.2.31
 _ZNSt8_Rb_treeISsSt4pairIKSsSsESt10_Select1stIS2_ESt4lessISsESaIS2_EE5eraseESt17_Rb_tree_iteratorIS2_E@Base 1.2.31
 _ZNSt8_Rb_treeISsSt4pairIKSsSsESt10_Select1stIS2_ESt4lessISsESaIS2_EE5eraseESt17_Rb_tree_iteratorIS2_ESA_@Base 1.2.31
 _ZNSt8_Rb_treeISsSt4pairIKSsSsESt10_Select1stIS2_ESt4lessISsESaIS2_EE6_M_endEv@Base 1.2.31
 _ZNSt8_Rb_treeISsSt4pairIKSsSsESt10_Select1stIS2_ESt4lessISsESaIS2_EE6_S_keyEPKSt13_Rb_tree_nodeIS2_E@Base 1.2.31
 _ZNSt8_Rb_treeISsSt4pairIKSsSsESt10_Select1stIS2_ESt4lessISsESaIS2_EE6_S_keyEPKSt18_Rb_tree_node_base@Base 1.2.31
 _ZNSt8_Rb_treeISsSt4pairIKSsSsESt10_Select1stIS2_ESt4lessISsESaIS2_EE7_M_rootEv@Base 1.2.31
 _ZNSt8_Rb_treeISsSt4pairIKSsSsESt10_Select1stIS2_ESt4lessISsESaIS2_EE7_S_leftEPKSt18_Rb_tree_node_base@Base 1.2.31
 _ZNSt8_Rb_treeISsSt4pairIKSsSsESt10_Select1stIS2_ESt4lessISsESaIS2_EE7_S_leftEPSt18_Rb_tree_node_base@Base 1.2.31
 _ZNSt8_Rb_treeISsSt4pairIKSsSsESt10_Select1stIS2_ESt4lessISsESaIS2_EE8_M_beginEv@Base 1.2.31
 _ZNSt8_Rb_treeISsSt4pairIKSsSsESt10_Select1stIS2_ESt4lessISsESaIS2_EE8_M_eraseEPSt13_Rb_tree_nodeIS2_E@Base 1.2.31
 _ZNSt8_Rb_treeISsSt4pairIKSsSsESt10_Select1stIS2_ESt4lessISsESaIS2_EE8_S_rightEPKSt18_Rb_tree_node_base@Base 1.2.31
 _ZNSt8_Rb_treeISsSt4pairIKSsSsESt10_Select1stIS2_ESt4lessISsESaIS2_EE8_S_rightEPSt18_Rb_tree_node_base@Base 1.2.31
 _ZNSt8_Rb_treeISsSt4pairIKSsSsESt10_Select1stIS2_ESt4lessISsESaIS2_EE8_S_valueEPKSt13_Rb_tree_nodeIS2_E@Base 1.2.31
 _ZNSt8_Rb_treeISsSt4pairIKSsSsESt10_Select1stIS2_ESt4lessISsESaIS2_EE8_S_valueEPKSt18_Rb_tree_node_base@Base 1.2.31
 _ZNSt8_Rb_treeISsSt4pairIKSsSsESt10_Select1stIS2_ESt4lessISsESaIS2_EEC1Ev@Base 1.2.31
 _ZNSt8_Rb_treeISsSt4pairIKSsSsESt10_Select1stIS2_ESt4lessISsESaIS2_EED1Ev@Base 1.2.31
 _ZNSt8_Rb_treeIiiSt9_IdentityIiESt4lessIiESaIiEE10_M_insert_EPKSt18_Rb_tree_node_baseS8_RKi@Base 1.2.31
 _ZNSt8_Rb_treeIiiSt9_IdentityIiESt4lessIiESaIiEE11_M_get_nodeEv@Base 1.2.31
 _ZNSt8_Rb_treeIiiSt9_IdentityIiESt4lessIiESaIiEE11_M_put_nodeEPSt13_Rb_tree_nodeIiE@Base 1.2.31
 _ZNSt8_Rb_treeIiiSt9_IdentityIiESt4lessIiESaIiEE13_Rb_tree_implIS3_Lb0EE13_M_initializeEv@Base 1.2.31
 _ZNSt8_Rb_treeIiiSt9_IdentityIiESt4lessIiESaIiEE13_Rb_tree_implIS3_Lb0EEC1Ev@Base 1.2.31
 _ZNSt8_Rb_treeIiiSt9_IdentityIiESt4lessIiESaIiEE13_Rb_tree_implIS3_Lb0EED1Ev@Base 1.2.31
 _ZNSt8_Rb_treeIiiSt9_IdentityIiESt4lessIiESaIiEE14_M_create_nodeERKi@Base 1.2.31
 _ZNSt8_Rb_treeIiiSt9_IdentityIiESt4lessIiESaIiEE15_M_destroy_nodeEPSt13_Rb_tree_nodeIiE@Base 1.2.31
 _ZNSt8_Rb_treeIiiSt9_IdentityIiESt4lessIiESaIiEE16_M_insert_uniqueERKi@Base 1.2.31
 _ZNSt8_Rb_treeIiiSt9_IdentityIiESt4lessIiESaIiEE5beginEv@Base 1.2.31
 _ZNSt8_Rb_treeIiiSt9_IdentityIiESt4lessIiESaIiEE6_M_endEv@Base 1.2.31
 _ZNSt8_Rb_treeIiiSt9_IdentityIiESt4lessIiESaIiEE6_S_keyEPKSt13_Rb_tree_nodeIiE@Base 1.2.31
 _ZNSt8_Rb_treeIiiSt9_IdentityIiESt4lessIiESaIiEE6_S_keyEPKSt18_Rb_tree_node_base@Base 1.2.31
 _ZNSt8_Rb_treeIiiSt9_IdentityIiESt4lessIiESaIiEE7_S_leftEPSt18_Rb_tree_node_base@Base 1.2.31
 _ZNSt8_Rb_treeIiiSt9_IdentityIiESt4lessIiESaIiEE8_M_beginEv@Base 1.2.31
 _ZNSt8_Rb_treeIiiSt9_IdentityIiESt4lessIiESaIiEE8_M_eraseEPSt13_Rb_tree_nodeIiE@Base 1.2.31
 _ZNSt8_Rb_treeIiiSt9_IdentityIiESt4lessIiESaIiEE8_S_rightEPSt18_Rb_tree_node_base@Base 1.2.31
 _ZNSt8_Rb_treeIiiSt9_IdentityIiESt4lessIiESaIiEE8_S_valueEPKSt13_Rb_tree_nodeIiE@Base 1.2.31
 _ZNSt8_Rb_treeIiiSt9_IdentityIiESt4lessIiESaIiEE8_S_valueEPKSt18_Rb_tree_node_base@Base 1.2.31
 _ZNSt8_Rb_treeIiiSt9_IdentityIiESt4lessIiESaIiEEC1Ev@Base 1.2.31
 _ZNSt8_Rb_treeIiiSt9_IdentityIiESt4lessIiESaIiEED1Ev@Base 1.2.31
 _ZNSt8_Rb_treeImmSt9_IdentityImESt4lessImESaImEE10_M_insert_EPKSt18_Rb_tree_node_baseS8_RKm@Base 1.2.31
 _ZNSt8_Rb_treeImmSt9_IdentityImESt4lessImESaImEE11_M_get_nodeEv@Base 1.2.31
 _ZNSt8_Rb_treeImmSt9_IdentityImESt4lessImESaImEE11_M_put_nodeEPSt13_Rb_tree_nodeImE@Base 1.2.31
 _ZNSt8_Rb_treeImmSt9_IdentityImESt4lessImESaImEE13_Rb_tree_implIS3_Lb0EE13_M_initializeEv@Base 1.2.31
 _ZNSt8_Rb_treeImmSt9_IdentityImESt4lessImESaImEE13_Rb_tree_implIS3_Lb0EEC1Ev@Base 1.2.31
 _ZNSt8_Rb_treeImmSt9_IdentityImESt4lessImESaImEE13_Rb_tree_implIS3_Lb0EED1Ev@Base 1.2.31
 _ZNSt8_Rb_treeImmSt9_IdentityImESt4lessImESaImEE14_M_create_nodeERKm@Base 1.2.31
 _ZNSt8_Rb_treeImmSt9_IdentityImESt4lessImESaImEE15_M_destroy_nodeEPSt13_Rb_tree_nodeImE@Base 1.2.31
 _ZNSt8_Rb_treeImmSt9_IdentityImESt4lessImESaImEE16_M_insert_uniqueERKm@Base 1.2.31
 _ZNSt8_Rb_treeImmSt9_IdentityImESt4lessImESaImEE5beginEv@Base 1.2.31
 _ZNSt8_Rb_treeImmSt9_IdentityImESt4lessImESaImEE6_M_endEv@Base 1.2.31
 _ZNSt8_Rb_treeImmSt9_IdentityImESt4lessImESaImEE6_S_keyEPKSt13_Rb_tree_nodeImE@Base 1.2.31
 _ZNSt8_Rb_treeImmSt9_IdentityImESt4lessImESaImEE6_S_keyEPKSt18_Rb_tree_node_base@Base 1.2.31
 _ZNSt8_Rb_treeImmSt9_IdentityImESt4lessImESaImEE7_S_leftEPSt18_Rb_tree_node_base@Base 1.2.31
 _ZNSt8_Rb_treeImmSt9_IdentityImESt4lessImESaImEE8_M_beginEv@Base 1.2.31
 _ZNSt8_Rb_treeImmSt9_IdentityImESt4lessImESaImEE8_M_eraseEPSt13_Rb_tree_nodeImE@Base 1.2.31
 _ZNSt8_Rb_treeImmSt9_IdentityImESt4lessImESaImEE8_S_rightEPSt18_Rb_tree_node_base@Base 1.2.31
 _ZNSt8_Rb_treeImmSt9_IdentityImESt4lessImESaImEE8_S_valueEPKSt13_Rb_tree_nodeImE@Base 1.2.31
 _ZNSt8_Rb_treeImmSt9_IdentityImESt4lessImESaImEE8_S_valueEPKSt18_Rb_tree_node_base@Base 1.2.31
 _ZNSt8_Rb_treeImmSt9_IdentityImESt4lessImESaImEEC1Ev@Base 1.2.31
 _ZNSt8_Rb_treeImmSt9_IdentityImESt4lessImESaImEED1Ev@Base 1.2.31
 _ZNSt9bad_allocC1Ev@Base 1.2.31
 _ZNSt9exceptionC2Ev@Base 1.2.31
 _ZSt10__distanceIN9__gnu_cxx17__normal_iteratorIPKPN12kyotocabinet7PlantDBINS2_5DirDBELh65EE4LinkESt6vectorIS7_SaIS7_EEEEENSt15iterator_traitsIT_E15difference_typeESF_SF_St26random_access_iterator_tag@Base 1.2.31
 _ZSt10__distanceIN9__gnu_cxx17__normal_iteratorIPKPN12kyotocabinet7PlantDBINS2_5DirDBELh65EE6RecordESt6vectorIS7_SaIS7_EEEEENSt15iterator_traitsIT_E15difference_typeESF_SF_St26random_access_iterator_tag@Base 1.2.31
 _ZSt10__distanceIN9__gnu_cxx17__normal_iteratorIPKPN12kyotocabinet7PlantDBINS2_6HashDBELh49EE4LinkESt6vectorIS7_SaIS7_EEEEENSt15iterator_traitsIT_E15difference_typeESF_SF_St26random_access_iterator_tag@Base 1.2.31
 _ZSt10__distanceIN9__gnu_cxx17__normal_iteratorIPKPN12kyotocabinet7PlantDBINS2_6HashDBELh49EE6RecordESt6vectorIS7_SaIS7_EEEEENSt15iterator_traitsIT_E15difference_typeESF_SF_St26random_access_iterator_tag@Base 1.2.31
 _ZSt10__distanceIN9__gnu_cxx17__normal_iteratorIPKPN12kyotocabinet7PlantDBINS2_7CacheDBELh33EE4LinkESt6vectorIS7_SaIS7_EEEEENSt15iterator_traitsIT_E15difference_typeESF_SF_St26random_access_iterator_tag@Base 1.2.31
 _ZSt10__distanceIN9__gnu_cxx17__normal_iteratorIPKPN12kyotocabinet7PlantDBINS2_7CacheDBELh33EE6RecordESt6vectorIS7_SaIS7_EEEEENSt15iterator_traitsIT_E15difference_typeESF_SF_St26random_access_iterator_tag@Base 1.2.31
 _ZSt10__distanceIN9__gnu_cxx17__normal_iteratorIPKcSsEEENSt15iterator_traitsIT_E15difference_typeES6_S6_St26random_access_iterator_tag@Base 1.2.31
 _ZSt10__distanceIN9__gnu_cxx17__normal_iteratorIPPN12kyotocabinet7PlantDBINS2_5DirDBELh65EE4LinkESt6vectorIS7_SaIS7_EEEEENSt15iterator_traitsIT_E15difference_typeESE_SE_St26random_access_iterator_tag@Base 1.2.31
 _ZSt10__distanceIN9__gnu_cxx17__normal_iteratorIPPN12kyotocabinet7PlantDBINS2_5DirDBELh65EE6RecordESt6vectorIS7_SaIS7_EEEEENSt15iterator_traitsIT_E15difference_typeESE_SE_St26random_access_iterator_tag@Base 1.2.31
 _ZSt10__distanceIN9__gnu_cxx17__normal_iteratorIPPN12kyotocabinet7PlantDBINS2_6HashDBELh49EE4LinkESt6vectorIS7_SaIS7_EEEEENSt15iterator_traitsIT_E15difference_typeESE_SE_St26random_access_iterator_tag@Base 1.2.31
 _ZSt10__distanceIN9__gnu_cxx17__normal_iteratorIPPN12kyotocabinet7PlantDBINS2_6HashDBELh49EE6RecordESt6vectorIS7_SaIS7_EEEEENSt15iterator_traitsIT_E15difference_typeESE_SE_St26random_access_iterator_tag@Base 1.2.31
 _ZSt10__distanceIN9__gnu_cxx17__normal_iteratorIPPN12kyotocabinet7PlantDBINS2_7CacheDBELh33EE4LinkESt6vectorIS7_SaIS7_EEEEENSt15iterator_traitsIT_E15difference_typeESE_SE_St26random_access_iterator_tag@Base 1.2.31
 _ZSt10__distanceIN9__gnu_cxx17__normal_iteratorIPPN12kyotocabinet7PlantDBINS2_7CacheDBELh33EE6RecordESt6vectorIS7_SaIS7_EEEEENSt15iterator_traitsIT_E15difference_typeESE_SE_St26random_access_iterator_tag@Base 1.2.31
 _ZSt10__distanceIPmENSt15iterator_traitsIT_E15difference_typeES2_S2_St26random_access_iterator_tag@Base 1.2.31
 _ZSt10__distanceISt20_List_const_iteratorIPN12kyotocabinet7ProtoDBINSt3tr113unordered_mapISsSsNS3_4hashISsEESt8equal_toISsESaISt4pairIKSsSsEEEELh16EE6CursorEEENSt15iterator_traitsIT_E15difference_typeESJ_SJ_St18input_iterator_tag@Base 1.2.31
 _ZSt10__distanceISt20_List_const_iteratorIPN12kyotocabinet7ProtoDBISt3mapISsSsSt4lessISsESaISt4pairIKSsSsEEELh17EE6CursorEEENSt15iterator_traitsIT_E15difference_typeESG_SG_St18input_iterator_tag@Base 1.2.31
 _ZSt10__pop_heapIN9__gnu_cxx17__normal_iteratorIPN12kyotocabinet6PolyDB9MergeLineESt6vectorIS4_SaIS4_EEEESt4lessIS4_EEvT_SC_SC_T0_@Base 1.2.31
 _ZSt10__pop_heapIPN12kyotocabinet6HashDB9FreeBlockENS1_19FreeBlockComparatorEEvT_S5_S5_T0_@Base 1.2.31
 _ZSt11__push_heapIN9__gnu_cxx17__normal_iteratorIPN12kyotocabinet6PolyDB9MergeLineESt6vectorIS4_SaIS4_EEEElS4_St4lessIS4_EEvT_T0_SD_T1_T2_@Base 1.2.31
 _ZSt11__push_heapIPN12kyotocabinet6HashDB9FreeBlockElS2_NS1_19FreeBlockComparatorEEvT_T0_S6_T1_T2_@Base 1.2.31
 _ZSt11lower_boundIN9__gnu_cxx17__normal_iteratorIPKPN12kyotocabinet7PlantDBINS2_5DirDBELh65EE6RecordESt6vectorIS7_SaIS7_EEEES7_NS5_16RecordComparatorEET_SF_SF_RKT0_T1_@Base 1.2.31
 _ZSt11lower_boundIN9__gnu_cxx17__normal_iteratorIPKPN12kyotocabinet7PlantDBINS2_6HashDBELh49EE6RecordESt6vectorIS7_SaIS7_EEEES7_NS5_16RecordComparatorEET_SF_SF_RKT0_T1_@Base 1.2.31
 _ZSt11lower_boundIN9__gnu_cxx17__normal_iteratorIPKPN12kyotocabinet7PlantDBINS2_7CacheDBELh33EE6RecordESt6vectorIS7_SaIS7_EEEES7_NS5_16RecordComparatorEET_SF_SF_RKT0_T1_@Base 1.2.31
 _ZSt11lower_boundIN9__gnu_cxx17__normal_iteratorIPPN12kyotocabinet7PlantDBINS2_5DirDBELh65EE6RecordESt6vectorIS7_SaIS7_EEEES7_NS5_16RecordComparatorEET_SE_SE_RKT0_T1_@Base 1.2.31
 _ZSt11lower_boundIN9__gnu_cxx17__normal_iteratorIPPN12kyotocabinet7PlantDBINS2_6HashDBELh49EE6RecordESt6vectorIS7_SaIS7_EEEES7_NS5_16RecordComparatorEET_SE_SE_RKT0_T1_@Base 1.2.31
 _ZSt11lower_boundIN9__gnu_cxx17__normal_iteratorIPPN12kyotocabinet7PlantDBINS2_7CacheDBELh33EE6RecordESt6vectorIS7_SaIS7_EEEES7_NS5_16RecordComparatorEET_SE_SE_RKT0_T1_@Base 1.2.31
 _ZSt11lower_boundIPmmET_S1_S1_RKT0_@Base 1.2.31
 _ZSt11upper_boundIN9__gnu_cxx17__normal_iteratorIPKPN12kyotocabinet7PlantDBINS2_5DirDBELh65EE4LinkESt6vectorIS7_SaIS7_EEEES7_NS5_14LinkComparatorEET_SF_SF_RKT0_T1_@Base 1.2.31
 _ZSt11upper_boundIN9__gnu_cxx17__normal_iteratorIPKPN12kyotocabinet7PlantDBINS2_6HashDBELh49EE4LinkESt6vectorIS7_SaIS7_EEEES7_NS5_14LinkComparatorEET_SF_SF_RKT0_T1_@Base 1.2.31
 _ZSt11upper_boundIN9__gnu_cxx17__normal_iteratorIPKPN12kyotocabinet7PlantDBINS2_7CacheDBELh33EE4LinkESt6vectorIS7_SaIS7_EEEES7_NS5_14LinkComparatorEET_SF_SF_RKT0_T1_@Base 1.2.31
 _ZSt11upper_boundIN9__gnu_cxx17__normal_iteratorIPPN12kyotocabinet7PlantDBINS2_5DirDBELh65EE4LinkESt6vectorIS7_SaIS7_EEEES7_NS5_14LinkComparatorEET_SE_SE_RKT0_T1_@Base 1.2.31
 _ZSt11upper_boundIN9__gnu_cxx17__normal_iteratorIPPN12kyotocabinet7PlantDBINS2_6HashDBELh49EE4LinkESt6vectorIS7_SaIS7_EEEES7_NS5_14LinkComparatorEET_SE_SE_RKT0_T1_@Base 1.2.31
 _ZSt11upper_boundIN9__gnu_cxx17__normal_iteratorIPPN12kyotocabinet7PlantDBINS2_7CacheDBELh33EE4LinkESt6vectorIS7_SaIS7_EEEES7_NS5_14LinkComparatorEET_SE_SE_RKT0_T1_@Base 1.2.31
 _ZSt12partial_sortIPN12kyotocabinet6HashDB9FreeBlockENS1_19FreeBlockComparatorEEvT_S5_S5_T0_@Base 1.2.31
 _ZSt13__adjust_heapIN9__gnu_cxx17__normal_iteratorIPN12kyotocabinet6PolyDB9MergeLineESt6vectorIS4_SaIS4_EEEElS4_St4lessIS4_EEvT_T0_SD_T1_T2_@Base 1.2.31
 _ZSt13__adjust_heapIPN12kyotocabinet6HashDB9FreeBlockElS2_NS1_19FreeBlockComparatorEEvT_T0_S6_T1_T2_@Base 1.2.31
 _ZSt13__copy_move_aILb0EPKN12kyotocabinet6PolyDB9MergeLineEPS2_ET1_T0_S7_S6_@Base 1.2.31
 _ZSt13__copy_move_aILb0EPN12kyotocabinet6PolyDB9MergeLineES3_ET1_T0_S5_S4_@Base 1.2.31
 _ZSt13__copy_move_aILb0EPPN12kyotocabinet7PlantDBINS0_5DirDBELh65EE4LinkES6_ET1_T0_S8_S7_@Base 1.2.31
 _ZSt13__copy_move_aILb0EPPN12kyotocabinet7PlantDBINS0_5DirDBELh65EE6RecordES6_ET1_T0_S8_S7_@Base 1.2.31
 _ZSt13__copy_move_aILb0EPPN12kyotocabinet7PlantDBINS0_6HashDBELh49EE4LinkES6_ET1_T0_S8_S7_@Base 1.2.31
 _ZSt13__copy_move_aILb0EPPN12kyotocabinet7PlantDBINS0_6HashDBELh49EE6RecordES6_ET1_T0_S8_S7_@Base 1.2.31
 _ZSt13__copy_move_aILb0EPPN12kyotocabinet7PlantDBINS0_7CacheDBELh33EE4LinkES6_ET1_T0_S8_S7_@Base 1.2.31
 _ZSt13__copy_move_aILb0EPPN12kyotocabinet7PlantDBINS0_7CacheDBELh33EE6RecordES6_ET1_T0_S8_S7_@Base 1.2.31
 _ZSt13__heap_selectIPN12kyotocabinet6HashDB9FreeBlockENS1_19FreeBlockComparatorEEvT_S5_S5_T0_@Base 1.2.31
 _ZSt13copy_backwardIPN12kyotocabinet10WALMessageES2_ET0_T_S4_S3_@Base 1.2.31
 _ZSt13copy_backwardIPN12kyotocabinet6HashDB9FreeBlockES3_ET0_T_S5_S4_@Base 1.2.31
 _ZSt13copy_backwardIPN12kyotocabinet6PolyDB9MergeLineES3_ET0_T_S5_S4_@Base 1.2.31
 _ZSt13copy_backwardIPPN12kyotocabinet7PlantDBINS0_5DirDBELh65EE4LinkES6_ET0_T_S8_S7_@Base 1.2.31
 _ZSt13copy_backwardIPPN12kyotocabinet7PlantDBINS0_5DirDBELh65EE6RecordES6_ET0_T_S8_S7_@Base 1.2.31
 _ZSt13copy_backwardIPPN12kyotocabinet7PlantDBINS0_6HashDBELh49EE4LinkES6_ET0_T_S8_S7_@Base 1.2.31
 _ZSt13copy_backwardIPPN12kyotocabinet7PlantDBINS0_6HashDBELh49EE6RecordES6_ET0_T_S8_S7_@Base 1.2.31
 _ZSt13copy_backwardIPPN12kyotocabinet7PlantDBINS0_7CacheDBELh33EE4LinkES6_ET0_T_S8_S7_@Base 1.2.31
 _ZSt13copy_backwardIPPN12kyotocabinet7PlantDBINS0_7CacheDBELh33EE6RecordES6_ET0_T_S8_S7_@Base 1.2.31
 _ZSt13copy_backwardIPSsS0_ET0_T_S2_S1_@Base 1.2.31
 _ZSt14__copy_move_a2ILb0EN9__gnu_cxx17__normal_iteratorIPKN12kyotocabinet6PolyDB9MergeLineESt6vectorIS4_SaIS4_EEEEPS4_ET1_T0_SD_SC_@Base 1.2.31
 _ZSt14__copy_move_a2ILb0EN9__gnu_cxx17__normal_iteratorIPPN12kyotocabinet7PlantDBINS2_5DirDBELh65EE4LinkESt6vectorIS7_SaIS7_EEEESC_ET1_T0_SE_SD_@Base 1.2.31
 _ZSt14__copy_move_a2ILb0EN9__gnu_cxx17__normal_iteratorIPPN12kyotocabinet7PlantDBINS2_5DirDBELh65EE6RecordESt6vectorIS7_SaIS7_EEEESC_ET1_T0_SE_SD_@Base 1.2.31
 _ZSt14__copy_move_a2ILb0EN9__gnu_cxx17__normal_iteratorIPPN12kyotocabinet7PlantDBINS2_6HashDBELh49EE4LinkESt6vectorIS7_SaIS7_EEEESC_ET1_T0_SE_SD_@Base 1.2.31
 _ZSt14__copy_move_a2ILb0EN9__gnu_cxx17__normal_iteratorIPPN12kyotocabinet7PlantDBINS2_6HashDBELh49EE6RecordESt6vectorIS7_SaIS7_EEEESC_ET1_T0_SE_SD_@Base 1.2.31
 _ZSt14__copy_move_a2ILb0EN9__gnu_cxx17__normal_iteratorIPPN12kyotocabinet7PlantDBINS2_7CacheDBELh33EE4LinkESt6vectorIS7_SaIS7_EEEESC_ET1_T0_SE_SD_@Base 1.2.31
 _ZSt14__copy_move_a2ILb0EN9__gnu_cxx17__normal_iteratorIPPN12kyotocabinet7PlantDBINS2_7CacheDBELh33EE6RecordESt6vectorIS7_SaIS7_EEEESC_ET1_T0_SE_SD_@Base 1.2.31
 _ZSt14__copy_move_a2ILb0EPN12kyotocabinet6PolyDB9MergeLineES3_ET1_T0_S5_S4_@Base 1.2.31
 _ZSt14__copy_move_a2ILb0EPPN12kyotocabinet7PlantDBINS0_5DirDBELh65EE4LinkES6_ET1_T0_S8_S7_@Base 1.2.31
 _ZSt14__copy_move_a2ILb0EPPN12kyotocabinet7PlantDBINS0_5DirDBELh65EE6RecordES6_ET1_T0_S8_S7_@Base 1.2.31
 _ZSt14__copy_move_a2ILb0EPPN12kyotocabinet7PlantDBINS0_6HashDBELh49EE4LinkES6_ET1_T0_S8_S7_@Base 1.2.31
 _ZSt14__copy_move_a2ILb0EPPN12kyotocabinet7PlantDBINS0_6HashDBELh49EE6RecordES6_ET1_T0_S8_S7_@Base 1.2.31
 _ZSt14__copy_move_a2ILb0EPPN12kyotocabinet7PlantDBINS0_7CacheDBELh33EE4LinkES6_ET1_T0_S8_S7_@Base 1.2.31
 _ZSt14__copy_move_a2ILb0EPPN12kyotocabinet7PlantDBINS0_7CacheDBELh33EE6RecordES6_ET1_T0_S8_S7_@Base 1.2.31
 _ZSt16__insertion_sortIPN12kyotocabinet6HashDB9FreeBlockENS1_19FreeBlockComparatorEEvT_S5_T0_@Base 1.2.31
 _ZSt16__introsort_loopIPN12kyotocabinet6HashDB9FreeBlockElNS1_19FreeBlockComparatorEEvT_S5_T0_T1_@Base 1.2.31
 _ZSt18uninitialized_copyIN9__gnu_cxx17__normal_iteratorIPKN12kyotocabinet6PolyDB9MergeLineESt6vectorIS4_SaIS4_EEEEPS4_ET0_T_SD_SC_@Base 1.2.31
 _ZSt18uninitialized_copyIPN12kyotocabinet10WALMessageES2_ET0_T_S4_S3_@Base 1.2.31
 _ZSt18uninitialized_copyIPN12kyotocabinet6PolyDB9MergeLineES3_ET0_T_S5_S4_@Base 1.2.31
 _ZSt18uninitialized_copyIPPN12kyotocabinet7PlantDBINS0_5DirDBELh65EE4LinkES6_ET0_T_S8_S7_@Base 1.2.31
 _ZSt18uninitialized_copyIPPN12kyotocabinet7PlantDBINS0_5DirDBELh65EE6RecordES6_ET0_T_S8_S7_@Base 1.2.31
 _ZSt18uninitialized_copyIPPN12kyotocabinet7PlantDBINS0_6HashDBELh49EE4LinkES6_ET0_T_S8_S7_@Base 1.2.31
 _ZSt18uninitialized_copyIPPN12kyotocabinet7PlantDBINS0_6HashDBELh49EE6RecordES6_ET0_T_S8_S7_@Base 1.2.31
 _ZSt18uninitialized_copyIPPN12kyotocabinet7PlantDBINS0_7CacheDBELh33EE4LinkES6_ET0_T_S8_S7_@Base 1.2.31
 _ZSt18uninitialized_copyIPPN12kyotocabinet7PlantDBINS0_7CacheDBELh33EE6RecordES6_ET0_T_S8_S7_@Base 1.2.31
 _ZSt18uninitialized_copyIPSsS0_ET0_T_S2_S1_@Base 1.2.31
 _ZSt19__iterator_categoryIN9__gnu_cxx17__normal_iteratorIPKPN12kyotocabinet7PlantDBINS2_5DirDBELh65EE4LinkESt6vectorIS7_SaIS7_EEEEENSt15iterator_traitsIT_E17iterator_categoryERKSF_@Base 1.2.31
 _ZSt19__iterator_categoryIN9__gnu_cxx17__normal_iteratorIPKPN12kyotocabinet7PlantDBINS2_5DirDBELh65EE6RecordESt6vectorIS7_SaIS7_EEEEENSt15iterator_traitsIT_E17iterator_categoryERKSF_@Base 1.2.31
 _ZSt19__iterator_categoryIN9__gnu_cxx17__normal_iteratorIPKPN12kyotocabinet7PlantDBINS2_6HashDBELh49EE4LinkESt6vectorIS7_SaIS7_EEEEENSt15iterator_traitsIT_E17iterator_categoryERKSF_@Base 1.2.31
 _ZSt19__iterator_categoryIN9__gnu_cxx17__normal_iteratorIPKPN12kyotocabinet7PlantDBINS2_6HashDBELh49EE6RecordESt6vectorIS7_SaIS7_EEEEENSt15iterator_traitsIT_E17iterator_categoryERKSF_@Base 1.2.31
 _ZSt19__iterator_categoryIN9__gnu_cxx17__normal_iteratorIPKPN12kyotocabinet7PlantDBINS2_7CacheDBELh33EE4LinkESt6vectorIS7_SaIS7_EEEEENSt15iterator_traitsIT_E17iterator_categoryERKSF_@Base 1.2.31
 _ZSt19__iterator_categoryIN9__gnu_cxx17__normal_iteratorIPKPN12kyotocabinet7PlantDBINS2_7CacheDBELh33EE6RecordESt6vectorIS7_SaIS7_EEEEENSt15iterator_traitsIT_E17iterator_categoryERKSF_@Base 1.2.31
 _ZSt19__iterator_categoryIN9__gnu_cxx17__normal_iteratorIPKcSsEEENSt15iterator_traitsIT_E17iterator_categoryERKS6_@Base 1.2.31
 _ZSt19__iterator_categoryIN9__gnu_cxx17__normal_iteratorIPPN12kyotocabinet7PlantDBINS2_5DirDBELh65EE4LinkESt6vectorIS7_SaIS7_EEEEENSt15iterator_traitsIT_E17iterator_categoryERKSE_@Base 1.2.31
 _ZSt19__iterator_categoryIN9__gnu_cxx17__normal_iteratorIPPN12kyotocabinet7PlantDBINS2_5DirDBELh65EE6RecordESt6vectorIS7_SaIS7_EEEEENSt15iterator_traitsIT_E17iterator_categoryERKSE_@Base 1.2.31
 _ZSt19__iterator_categoryIN9__gnu_cxx17__normal_iteratorIPPN12kyotocabinet7PlantDBINS2_6HashDBELh49EE4LinkESt6vectorIS7_SaIS7_EEEEENSt15iterator_traitsIT_E17iterator_categoryERKSE_@Base 1.2.31
 _ZSt19__iterator_categoryIN9__gnu_cxx17__normal_iteratorIPPN12kyotocabinet7PlantDBINS2_6HashDBELh49EE6RecordESt6vectorIS7_SaIS7_EEEEENSt15iterator_traitsIT_E17iterator_categoryERKSE_@Base 1.2.31
 _ZSt19__iterator_categoryIN9__gnu_cxx17__normal_iteratorIPPN12kyotocabinet7PlantDBINS2_7CacheDBELh33EE4LinkESt6vectorIS7_SaIS7_EEEEENSt15iterator_traitsIT_E17iterator_categoryERKSE_@Base 1.2.31
 _ZSt19__iterator_categoryIN9__gnu_cxx17__normal_iteratorIPPN12kyotocabinet7PlantDBINS2_7CacheDBELh33EE6RecordESt6vectorIS7_SaIS7_EEEEENSt15iterator_traitsIT_E17iterator_categoryERKSE_@Base 1.2.31
 _ZSt19__iterator_categoryIPmENSt15iterator_traitsIT_E17iterator_categoryERKS2_@Base 1.2.31
 _ZSt19__iterator_categoryISt20_List_const_iteratorIPN12kyotocabinet7ProtoDBINSt3tr113unordered_mapISsSsNS3_4hashISsEESt8equal_toISsESaISt4pairIKSsSsEEEELh16EE6CursorEEENSt15iterator_traitsIT_E17iterator_categoryERKSJ_@Base 1.2.31
 _ZSt19__iterator_categoryISt20_List_const_iteratorIPN12kyotocabinet7ProtoDBISt3mapISsSsSt4lessISsESaISt4pairIKSsSsEEELh17EE6CursorEEENSt15iterator_traitsIT_E17iterator_categoryERKSG_@Base 1.2.31
 _ZSt21__unguarded_partitionIPN12kyotocabinet6HashDB9FreeBlockES2_NS1_19FreeBlockComparatorEET_S5_S5_T0_T1_@Base 1.2.31
 _ZSt22__copy_move_backward_aILb0EPN12kyotocabinet10WALMessageES2_ET1_T0_S4_S3_@Base 1.2.31
 _ZSt22__copy_move_backward_aILb0EPN12kyotocabinet6HashDB9FreeBlockES3_ET1_T0_S5_S4_@Base 1.2.31
 _ZSt22__copy_move_backward_aILb0EPN12kyotocabinet6PolyDB9MergeLineES3_ET1_T0_S5_S4_@Base 1.2.31
 _ZSt22__copy_move_backward_aILb0EPPN12kyotocabinet7PlantDBINS0_5DirDBELh65EE4LinkES6_ET1_T0_S8_S7_@Base 1.2.31
 _ZSt22__copy_move_backward_aILb0EPPN12kyotocabinet7PlantDBINS0_5DirDBELh65EE6RecordES6_ET1_T0_S8_S7_@Base 1.2.31
 _ZSt22__copy_move_backward_aILb0EPPN12kyotocabinet7PlantDBINS0_6HashDBELh49EE4LinkES6_ET1_T0_S8_S7_@Base 1.2.31
 _ZSt22__copy_move_backward_aILb0EPPN12kyotocabinet7PlantDBINS0_6HashDBELh49EE6RecordES6_ET1_T0_S8_S7_@Base 1.2.31
 _ZSt22__copy_move_backward_aILb0EPPN12kyotocabinet7PlantDBINS0_7CacheDBELh33EE4LinkES6_ET1_T0_S8_S7_@Base 1.2.31
 _ZSt22__copy_move_backward_aILb0EPPN12kyotocabinet7PlantDBINS0_7CacheDBELh33EE6RecordES6_ET1_T0_S8_S7_@Base 1.2.31
 _ZSt22__copy_move_backward_aILb0EPSsS0_ET1_T0_S2_S1_@Base 1.2.31
 _ZSt22__final_insertion_sortIPN12kyotocabinet6HashDB9FreeBlockENS1_19FreeBlockComparatorEEvT_S5_T0_@Base 1.2.31
 _ZSt22__uninitialized_copy_aIN9__gnu_cxx17__normal_iteratorIPKN12kyotocabinet6PolyDB9MergeLineESt6vectorIS4_SaIS4_EEEEPS4_S4_ET0_T_SD_SC_RSaIT1_E@Base 1.2.31
 _ZSt22__uninitialized_copy_aIPN12kyotocabinet10WALMessageES2_S1_ET0_T_S4_S3_RSaIT1_E@Base 1.2.31
 _ZSt22__uninitialized_copy_aIPN12kyotocabinet6PolyDB9MergeLineES3_S2_ET0_T_S5_S4_RSaIT1_E@Base 1.2.31
 _ZSt22__uninitialized_copy_aIPPN12kyotocabinet7PlantDBINS0_5DirDBELh65EE4LinkES6_S5_ET0_T_S8_S7_RSaIT1_E@Base 1.2.31
 _ZSt22__uninitialized_copy_aIPPN12kyotocabinet7PlantDBINS0_5DirDBELh65EE6RecordES6_S5_ET0_T_S8_S7_RSaIT1_E@Base 1.2.31
 _ZSt22__uninitialized_copy_aIPPN12kyotocabinet7PlantDBINS0_6HashDBELh49EE4LinkES6_S5_ET0_T_S8_S7_RSaIT1_E@Base 1.2.31
 _ZSt22__uninitialized_copy_aIPPN12kyotocabinet7PlantDBINS0_6HashDBELh49EE6RecordES6_S5_ET0_T_S8_S7_RSaIT1_E@Base 1.2.31
 _ZSt22__uninitialized_copy_aIPPN12kyotocabinet7PlantDBINS0_7CacheDBELh33EE4LinkES6_S5_ET0_T_S8_S7_RSaIT1_E@Base 1.2.31
 _ZSt22__uninitialized_copy_aIPPN12kyotocabinet7PlantDBINS0_7CacheDBELh33EE6RecordES6_S5_ET0_T_S8_S7_RSaIT1_E@Base 1.2.31
 _ZSt22__uninitialized_copy_aIPSsS0_SsET0_T_S2_S1_RSaIT1_E@Base 1.2.31
 _ZSt22__uninitialized_move_aIPN12kyotocabinet10WALMessageES2_SaIS1_EET0_T_S5_S4_RT1_@Base 1.2.31
 _ZSt22__uninitialized_move_aIPN12kyotocabinet6PolyDB9MergeLineES3_SaIS2_EET0_T_S6_S5_RT1_@Base 1.2.31
 _ZSt22__uninitialized_move_aIPPN12kyotocabinet7PlantDBINS0_5DirDBELh65EE4LinkES6_SaIS5_EET0_T_S9_S8_RT1_@Base 1.2.31
 _ZSt22__uninitialized_move_aIPPN12kyotocabinet7PlantDBINS0_5DirDBELh65EE6RecordES6_SaIS5_EET0_T_S9_S8_RT1_@Base 1.2.31
 _ZSt22__uninitialized_move_aIPPN12kyotocabinet7PlantDBINS0_6HashDBELh49EE4LinkES6_SaIS5_EET0_T_S9_S8_RT1_@Base 1.2.31
 _ZSt22__uninitialized_move_aIPPN12kyotocabinet7PlantDBINS0_6HashDBELh49EE6RecordES6_SaIS5_EET0_T_S9_S8_RT1_@Base 1.2.31
 _ZSt22__uninitialized_move_aIPPN12kyotocabinet7PlantDBINS0_7CacheDBELh33EE4LinkES6_SaIS5_EET0_T_S9_S8_RT1_@Base 1.2.31
 _ZSt22__uninitialized_move_aIPPN12kyotocabinet7PlantDBINS0_7CacheDBELh33EE6RecordES6_SaIS5_EET0_T_S9_S8_RT1_@Base 1.2.31
 _ZSt22__uninitialized_move_aIPSsS0_SaISsEET0_T_S3_S2_RT1_@Base 1.2.31
 _ZSt23__copy_move_backward_a2ILb0EPN12kyotocabinet10WALMessageES2_ET1_T0_S4_S3_@Base 1.2.31
 _ZSt23__copy_move_backward_a2ILb0EPN12kyotocabinet6HashDB9FreeBlockES3_ET1_T0_S5_S4_@Base 1.2.31
 _ZSt23__copy_move_backward_a2ILb0EPN12kyotocabinet6PolyDB9MergeLineES3_ET1_T0_S5_S4_@Base 1.2.31
 _ZSt23__copy_move_backward_a2ILb0EPPN12kyotocabinet7PlantDBINS0_5DirDBELh65EE4LinkES6_ET1_T0_S8_S7_@Base 1.2.31
 _ZSt23__copy_move_backward_a2ILb0EPPN12kyotocabinet7PlantDBINS0_5DirDBELh65EE6RecordES6_ET1_T0_S8_S7_@Base 1.2.31
 _ZSt23__copy_move_backward_a2ILb0EPPN12kyotocabinet7PlantDBINS0_6HashDBELh49EE4LinkES6_ET1_T0_S8_S7_@Base 1.2.31
 _ZSt23__copy_move_backward_a2ILb0EPPN12kyotocabinet7PlantDBINS0_6HashDBELh49EE6RecordES6_ET1_T0_S8_S7_@Base 1.2.31
 _ZSt23__copy_move_backward_a2ILb0EPPN12kyotocabinet7PlantDBINS0_7CacheDBELh33EE4LinkES6_ET1_T0_S8_S7_@Base 1.2.31
 _ZSt23__copy_move_backward_a2ILb0EPPN12kyotocabinet7PlantDBINS0_7CacheDBELh33EE6RecordES6_ET1_T0_S8_S7_@Base 1.2.31
 _ZSt23__copy_move_backward_a2ILb0EPSsS0_ET1_T0_S2_S1_@Base 1.2.31
 _ZSt25__unguarded_linear_insertIPN12kyotocabinet6HashDB9FreeBlockES2_NS1_19FreeBlockComparatorEEvT_T0_T1_@Base 1.2.31
 _ZSt26__unguarded_insertion_sortIPN12kyotocabinet6HashDB9FreeBlockENS1_19FreeBlockComparatorEEvT_S5_T0_@Base 1.2.31
 _ZSt3maxIfERKT_S2_S2_@Base 1.2.31
 _ZSt3maxImERKT_S2_S2_@Base 1.2.31
 _ZSt3powee@Base 1.2.31
 _ZSt4__lgl@Base 1.2.31
 _ZSt4copyIN9__gnu_cxx17__normal_iteratorIPKN12kyotocabinet6PolyDB9MergeLineESt6vectorIS4_SaIS4_EEEEPS4_ET0_T_SD_SC_@Base 1.2.31
 _ZSt4copyIN9__gnu_cxx17__normal_iteratorIPPN12kyotocabinet7PlantDBINS2_5DirDBELh65EE4LinkESt6vectorIS7_SaIS7_EEEESC_ET0_T_SE_SD_@Base 1.2.31
 _ZSt4copyIN9__gnu_cxx17__normal_iteratorIPPN12kyotocabinet7PlantDBINS2_5DirDBELh65EE6RecordESt6vectorIS7_SaIS7_EEEESC_ET0_T_SE_SD_@Base 1.2.31
 _ZSt4copyIN9__gnu_cxx17__normal_iteratorIPPN12kyotocabinet7PlantDBINS2_6HashDBELh49EE4LinkESt6vectorIS7_SaIS7_EEEESC_ET0_T_SE_SD_@Base 1.2.31
 _ZSt4copyIN9__gnu_cxx17__normal_iteratorIPPN12kyotocabinet7PlantDBINS2_6HashDBELh49EE6RecordESt6vectorIS7_SaIS7_EEEESC_ET0_T_SE_SD_@Base 1.2.31
 _ZSt4copyIN9__gnu_cxx17__normal_iteratorIPPN12kyotocabinet7PlantDBINS2_7CacheDBELh33EE4LinkESt6vectorIS7_SaIS7_EEEESC_ET0_T_SE_SD_@Base 1.2.31
 _ZSt4copyIN9__gnu_cxx17__normal_iteratorIPPN12kyotocabinet7PlantDBINS2_7CacheDBELh33EE6RecordESt6vectorIS7_SaIS7_EEEESC_ET0_T_SE_SD_@Base 1.2.31
 _ZSt4copyIPN12kyotocabinet6PolyDB9MergeLineES3_ET0_T_S5_S4_@Base 1.2.31
 _ZSt4copyIPPN12kyotocabinet7PlantDBINS0_5DirDBELh65EE4LinkES6_ET0_T_S8_S7_@Base 1.2.31
 _ZSt4copyIPPN12kyotocabinet7PlantDBINS0_5DirDBELh65EE6RecordES6_ET0_T_S8_S7_@Base 1.2.31
 _ZSt4copyIPPN12kyotocabinet7PlantDBINS0_6HashDBELh49EE4LinkES6_ET0_T_S8_S7_@Base 1.2.31
 _ZSt4copyIPPN12kyotocabinet7PlantDBINS0_6HashDBELh49EE6RecordES6_ET0_T_S8_S7_@Base 1.2.31
 _ZSt4copyIPPN12kyotocabinet7PlantDBINS0_7CacheDBELh33EE4LinkES6_ET0_T_S8_S7_@Base 1.2.31
 _ZSt4copyIPPN12kyotocabinet7PlantDBINS0_7CacheDBELh33EE6RecordES6_ET0_T_S8_S7_@Base 1.2.31
 _ZSt4fillIPPNSt3tr18__detail10_Hash_nodeISt4pairIKSsSsELb0EEES7_EvT_S9_RKT0_@Base 1.2.31
 _ZSt4sortIPN12kyotocabinet6HashDB9FreeBlockENS1_19FreeBlockComparatorEEvT_S5_T0_@Base 1.2.31
 _ZSt4swapIN12kyotocabinet6HashDB9FreeBlockEEvRT_S4_@Base 1.2.31
 _ZSt4swapIPSt18_Rb_tree_node_baseEvRT_S3_@Base 1.2.31
 _ZSt4swapISt4lessIN12kyotocabinet6HashDB9FreeBlockEEEvRT_S6_@Base 1.2.31
 _ZSt4swapImEvRT_S1_@Base 1.2.31
 _ZSt7advanceIN9__gnu_cxx17__normal_iteratorIPKPN12kyotocabinet7PlantDBINS2_5DirDBELh65EE4LinkESt6vectorIS7_SaIS7_EEEElEvRT_T0_@Base 1.2.31
 _ZSt7advanceIN9__gnu_cxx17__normal_iteratorIPKPN12kyotocabinet7PlantDBINS2_5DirDBELh65EE6RecordESt6vectorIS7_SaIS7_EEEElEvRT_T0_@Base 1.2.31
 _ZSt7advanceIN9__gnu_cxx17__normal_iteratorIPKPN12kyotocabinet7PlantDBINS2_6HashDBELh49EE4LinkESt6vectorIS7_SaIS7_EEEElEvRT_T0_@Base 1.2.31
 _ZSt7advanceIN9__gnu_cxx17__normal_iteratorIPKPN12kyotocabinet7PlantDBINS2_6HashDBELh49EE6RecordESt6vectorIS7_SaIS7_EEEElEvRT_T0_@Base 1.2.31
 _ZSt7advanceIN9__gnu_cxx17__normal_iteratorIPKPN12kyotocabinet7PlantDBINS2_7CacheDBELh33EE4LinkESt6vectorIS7_SaIS7_EEEElEvRT_T0_@Base 1.2.31
 _ZSt7advanceIN9__gnu_cxx17__normal_iteratorIPKPN12kyotocabinet7PlantDBINS2_7CacheDBELh33EE6RecordESt6vectorIS7_SaIS7_EEEElEvRT_T0_@Base 1.2.31
 _ZSt7advanceIN9__gnu_cxx17__normal_iteratorIPPN12kyotocabinet7PlantDBINS2_5DirDBELh65EE4LinkESt6vectorIS7_SaIS7_EEEElEvRT_T0_@Base 1.2.31
 _ZSt7advanceIN9__gnu_cxx17__normal_iteratorIPPN12kyotocabinet7PlantDBINS2_5DirDBELh65EE6RecordESt6vectorIS7_SaIS7_EEEElEvRT_T0_@Base 1.2.31
 _ZSt7advanceIN9__gnu_cxx17__normal_iteratorIPPN12kyotocabinet7PlantDBINS2_6HashDBELh49EE4LinkESt6vectorIS7_SaIS7_EEEElEvRT_T0_@Base 1.2.31
 _ZSt7advanceIN9__gnu_cxx17__normal_iteratorIPPN12kyotocabinet7PlantDBINS2_6HashDBELh49EE6RecordESt6vectorIS7_SaIS7_EEEElEvRT_T0_@Base 1.2.31
 _ZSt7advanceIN9__gnu_cxx17__normal_iteratorIPPN12kyotocabinet7PlantDBINS2_7CacheDBELh33EE4LinkESt6vectorIS7_SaIS7_EEEElEvRT_T0_@Base 1.2.31
 _ZSt7advanceIN9__gnu_cxx17__normal_iteratorIPPN12kyotocabinet7PlantDBINS2_7CacheDBELh33EE6RecordESt6vectorIS7_SaIS7_EEEElEvRT_T0_@Base 1.2.31
 _ZSt7advanceIPmlEvRT_T0_@Base 1.2.31
 _ZSt8_DestroyIN12kyotocabinet10WALMessageEEvPT_@Base 1.2.31
 _ZSt8_DestroyIPN12kyotocabinet10WALMessageEEvT_S3_@Base 1.2.31
 _ZSt8_DestroyIPN12kyotocabinet10WALMessageES1_EvT_S3_RSaIT0_E@Base 1.2.31
 _ZSt8_DestroyIPN12kyotocabinet6PolyDB9MergeLineEEvT_S4_@Base 1.2.31
 _ZSt8_DestroyIPN12kyotocabinet6PolyDB9MergeLineES2_EvT_S4_RSaIT0_E@Base 1.2.31
 _ZSt8_DestroyIPPN12kyotocabinet7PlantDBINS0_5DirDBELh65EE4LinkEEvT_S7_@Base 1.2.31
 _ZSt8_DestroyIPPN12kyotocabinet7PlantDBINS0_5DirDBELh65EE4LinkES5_EvT_S7_RSaIT0_E@Base 1.2.31
 _ZSt8_DestroyIPPN12kyotocabinet7PlantDBINS0_5DirDBELh65EE6RecordEEvT_S7_@Base 1.2.31
 _ZSt8_DestroyIPPN12kyotocabinet7PlantDBINS0_5DirDBELh65EE6RecordES5_EvT_S7_RSaIT0_E@Base 1.2.31
 _ZSt8_DestroyIPPN12kyotocabinet7PlantDBINS0_6HashDBELh49EE4LinkEEvT_S7_@Base 1.2.31
 _ZSt8_DestroyIPPN12kyotocabinet7PlantDBINS0_6HashDBELh49EE4LinkES5_EvT_S7_RSaIT0_E@Base 1.2.31
 _ZSt8_DestroyIPPN12kyotocabinet7PlantDBINS0_6HashDBELh49EE6RecordEEvT_S7_@Base 1.2.31
 _ZSt8_DestroyIPPN12kyotocabinet7PlantDBINS0_6HashDBELh49EE6RecordES5_EvT_S7_RSaIT0_E@Base 1.2.31
 _ZSt8_DestroyIPPN12kyotocabinet7PlantDBINS0_7CacheDBELh33EE4LinkEEvT_S7_@Base 1.2.31
 _ZSt8_DestroyIPPN12kyotocabinet7PlantDBINS0_7CacheDBELh33EE4LinkES5_EvT_S7_RSaIT0_E@Base 1.2.31
 _ZSt8_DestroyIPPN12kyotocabinet7PlantDBINS0_7CacheDBELh33EE6RecordEEvT_S7_@Base 1.2.31
 _ZSt8_DestroyIPPN12kyotocabinet7PlantDBINS0_7CacheDBELh33EE6RecordES5_EvT_S7_RSaIT0_E@Base 1.2.31
 _ZSt8_DestroyIPSsEvT_S1_@Base 1.2.31
 _ZSt8_DestroyIPSsSsEvT_S1_RSaIT0_E@Base 1.2.31
 _ZSt8_DestroyISsEvPT_@Base 1.2.31
 _ZSt8__fill_aIPPNSt3tr18__detail10_Hash_nodeISt4pairIKSsSsELb0EEES7_EN9__gnu_cxx11__enable_ifIXsrSt11__is_scalarIT0_E7__valueEvE6__typeET_SG_RKSC_@Base 1.2.31
 _ZSt8__medianIN12kyotocabinet6HashDB9FreeBlockENS1_19FreeBlockComparatorEERKT_S6_S6_S6_T0_@Base 1.2.31
 _ZSt8distanceIN9__gnu_cxx17__normal_iteratorIPKPN12kyotocabinet7PlantDBINS2_5DirDBELh65EE4LinkESt6vectorIS7_SaIS7_EEEEENSt15iterator_traitsIT_E15difference_typeESF_SF_@Base 1.2.31
 _ZSt8distanceIN9__gnu_cxx17__normal_iteratorIPKPN12kyotocabinet7PlantDBINS2_5DirDBELh65EE6RecordESt6vectorIS7_SaIS7_EEEEENSt15iterator_traitsIT_E15difference_typeESF_SF_@Base 1.2.31
 _ZSt8distanceIN9__gnu_cxx17__normal_iteratorIPKPN12kyotocabinet7PlantDBINS2_6HashDBELh49EE4LinkESt6vectorIS7_SaIS7_EEEEENSt15iterator_traitsIT_E15difference_typeESF_SF_@Base 1.2.31
 _ZSt8distanceIN9__gnu_cxx17__normal_iteratorIPKPN12kyotocabinet7PlantDBINS2_6HashDBELh49EE6RecordESt6vectorIS7_SaIS7_EEEEENSt15iterator_traitsIT_E15difference_typeESF_SF_@Base 1.2.31
 _ZSt8distanceIN9__gnu_cxx17__normal_iteratorIPKPN12kyotocabinet7PlantDBINS2_7CacheDBELh33EE4LinkESt6vectorIS7_SaIS7_EEEEENSt15iterator_traitsIT_E15difference_typeESF_SF_@Base 1.2.31
 _ZSt8distanceIN9__gnu_cxx17__normal_iteratorIPKPN12kyotocabinet7PlantDBINS2_7CacheDBELh33EE6RecordESt6vectorIS7_SaIS7_EEEEENSt15iterator_traitsIT_E15difference_typeESF_SF_@Base 1.2.31
 _ZSt8distanceIN9__gnu_cxx17__normal_iteratorIPKcSsEEENSt15iterator_traitsIT_E15difference_typeES6_S6_@Base 1.2.31
 _ZSt8distanceIN9__gnu_cxx17__normal_iteratorIPPN12kyotocabinet7PlantDBINS2_5DirDBELh65EE4LinkESt6vectorIS7_SaIS7_EEEEENSt15iterator_traitsIT_E15difference_typeESE_SE_@Base 1.2.31
 _ZSt8distanceIN9__gnu_cxx17__normal_iteratorIPPN12kyotocabinet7PlantDBINS2_5DirDBELh65EE6RecordESt6vectorIS7_SaIS7_EEEEENSt15iterator_traitsIT_E15difference_typeESE_SE_@Base 1.2.31
 _ZSt8distanceIN9__gnu_cxx17__normal_iteratorIPPN12kyotocabinet7PlantDBINS2_6HashDBELh49EE4LinkESt6vectorIS7_SaIS7_EEEEENSt15iterator_traitsIT_E15difference_typeESE_SE_@Base 1.2.31
 _ZSt8distanceIN9__gnu_cxx17__normal_iteratorIPPN12kyotocabinet7PlantDBINS2_6HashDBELh49EE6RecordESt6vectorIS7_SaIS7_EEEEENSt15iterator_traitsIT_E15difference_typeESE_SE_@Base 1.2.31
 _ZSt8distanceIN9__gnu_cxx17__normal_iteratorIPPN12kyotocabinet7PlantDBINS2_7CacheDBELh33EE4LinkESt6vectorIS7_SaIS7_EEEEENSt15iterator_traitsIT_E15difference_typeESE_SE_@Base 1.2.31
 _ZSt8distanceIN9__gnu_cxx17__normal_iteratorIPPN12kyotocabinet7PlantDBINS2_7CacheDBELh33EE6RecordESt6vectorIS7_SaIS7_EEEEENSt15iterator_traitsIT_E15difference_typeESE_SE_@Base 1.2.31
 _ZSt8distanceIPmENSt15iterator_traitsIT_E15difference_typeES2_S2_@Base 1.2.31
 _ZSt8distanceISt20_List_const_iteratorIPN12kyotocabinet7ProtoDBINSt3tr113unordered_mapISsSsNS3_4hashISsEESt8equal_toISsESaISt4pairIKSsSsEEEELh16EE6CursorEEENSt15iterator_traitsIT_E15difference_typeESJ_SJ_@Base 1.2.31
 _ZSt8distanceISt20_List_const_iteratorIPN12kyotocabinet7ProtoDBISt3mapISsSsSt4lessISsESaISt4pairIKSsSsEEELh17EE6CursorEEENSt15iterator_traitsIT_E15difference_typeESG_SG_@Base 1.2.31
 _ZSt8pop_heapIN9__gnu_cxx17__normal_iteratorIPN12kyotocabinet6PolyDB9MergeLineESt6vectorIS4_SaIS4_EEEESt4lessIS4_EEvT_SC_T0_@Base 1.2.31
 _ZSt9__advanceIN9__gnu_cxx17__normal_iteratorIPKPN12kyotocabinet7PlantDBINS2_5DirDBELh65EE4LinkESt6vectorIS7_SaIS7_EEEElEvRT_T0_St26random_access_iterator_tag@Base 1.2.31
 _ZSt9__advanceIN9__gnu_cxx17__normal_iteratorIPKPN12kyotocabinet7PlantDBINS2_5DirDBELh65EE6RecordESt6vectorIS7_SaIS7_EEEElEvRT_T0_St26random_access_iterator_tag@Base 1.2.31
 _ZSt9__advanceIN9__gnu_cxx17__normal_iteratorIPKPN12kyotocabinet7PlantDBINS2_6HashDBELh49EE4LinkESt6vectorIS7_SaIS7_EEEElEvRT_T0_St26random_access_iterator_tag@Base 1.2.31
 _ZSt9__advanceIN9__gnu_cxx17__normal_iteratorIPKPN12kyotocabinet7PlantDBINS2_6HashDBELh49EE6RecordESt6vectorIS7_SaIS7_EEEElEvRT_T0_St26random_access_iterator_tag@Base 1.2.31
 _ZSt9__advanceIN9__gnu_cxx17__normal_iteratorIPKPN12kyotocabinet7PlantDBINS2_7CacheDBELh33EE4LinkESt6vectorIS7_SaIS7_EEEElEvRT_T0_St26random_access_iterator_tag@Base 1.2.31
 _ZSt9__advanceIN9__gnu_cxx17__normal_iteratorIPKPN12kyotocabinet7PlantDBINS2_7CacheDBELh33EE6RecordESt6vectorIS7_SaIS7_EEEElEvRT_T0_St26random_access_iterator_tag@Base 1.2.31
 _ZSt9__advanceIN9__gnu_cxx17__normal_iteratorIPPN12kyotocabinet7PlantDBINS2_5DirDBELh65EE4LinkESt6vectorIS7_SaIS7_EEEElEvRT_T0_St26random_access_iterator_tag@Base 1.2.31
 _ZSt9__advanceIN9__gnu_cxx17__normal_iteratorIPPN12kyotocabinet7PlantDBINS2_5DirDBELh65EE6RecordESt6vectorIS7_SaIS7_EEEElEvRT_T0_St26random_access_iterator_tag@Base 1.2.31
 _ZSt9__advanceIN9__gnu_cxx17__normal_iteratorIPPN12kyotocabinet7PlantDBINS2_6HashDBELh49EE4LinkESt6vectorIS7_SaIS7_EEEElEvRT_T0_St26random_access_iterator_tag@Base 1.2.31
 _ZSt9__advanceIN9__gnu_cxx17__normal_iteratorIPPN12kyotocabinet7PlantDBINS2_6HashDBELh49EE6RecordESt6vectorIS7_SaIS7_EEEElEvRT_T0_St26random_access_iterator_tag@Base 1.2.31
 _ZSt9__advanceIN9__gnu_cxx17__normal_iteratorIPPN12kyotocabinet7PlantDBINS2_7CacheDBELh33EE4LinkESt6vectorIS7_SaIS7_EEEElEvRT_T0_St26random_access_iterator_tag@Base 1.2.31
 _ZSt9__advanceIN9__gnu_cxx17__normal_iteratorIPPN12kyotocabinet7PlantDBINS2_7CacheDBELh33EE6RecordESt6vectorIS7_SaIS7_EEEElEvRT_T0_St26random_access_iterator_tag@Base 1.2.31
 _ZSt9__advanceIPmlEvRT_T0_St26random_access_iterator_tag@Base 1.2.31
 _ZSt9iter_swapIPN12kyotocabinet6HashDB9FreeBlockES3_EvT_T0_@Base 1.2.31
 _ZSt9make_heapIN9__gnu_cxx17__normal_iteratorIPN12kyotocabinet6PolyDB9MergeLineESt6vectorIS4_SaIS4_EEEESt4lessIS4_EEvT_SC_T0_@Base 1.2.31
 _ZSt9make_heapIPN12kyotocabinet6HashDB9FreeBlockENS1_19FreeBlockComparatorEEvT_S5_T0_@Base 1.2.31
 _ZSt9make_pairISsSsESt4pairIT_T0_ES1_S2_@Base 1.2.31
 _ZSt9make_pairIbiESt4pairIT_T0_ES1_S2_@Base 1.2.31
 _ZSt9make_pairIbmESt4pairIT_T0_ES1_S2_@Base 1.2.31
 _ZSt9push_heapIN9__gnu_cxx17__normal_iteratorIPN12kyotocabinet6PolyDB9MergeLineESt6vectorIS4_SaIS4_EEEESt4lessIS4_EEvT_SC_T0_@Base 1.2.31
 _ZSt9sort_heapIPN12kyotocabinet6HashDB9FreeBlockENS1_19FreeBlockComparatorEEvT_S5_T0_@Base 1.2.31
 _ZSteqIcEN9__gnu_cxx11__enable_ifIXsrSt9__is_charIT_E7__valueEbE6__typeERKSbIS3_St11char_traitsIS3_ESaIS3_EESC_@Base 1.2.31
 _ZSteqIcEbRKSaIT_ES3_@Base 1.2.31
 _ZSteqIcSt11char_traitsIcESaIcEEbRKSbIT_T0_T1_EPKS3_@Base 1.2.31
 _ZStltIcSt11char_traitsIcESaIcEEbRKSbIT_T0_T1_ES8_@Base 1.2.31
 _ZStneIcSt11char_traitsIcESaIcEEbRKSbIT_T0_T1_EPKS3_@Base 1.2.31
 _ZStorSt13_Ios_OpenmodeS_@Base 1.2.31
 _ZStplIcSt11char_traitsIcESaIcEESbIT_T0_T1_ERKS6_PKS3_@Base 1.2.31
 _ZStplIcSt11char_traitsIcESaIcEESbIT_T0_T1_ERKS6_S3_@Base 1.2.31
 _ZStplIcSt11char_traitsIcESaIcEESbIT_T0_T1_ERKS6_S8_@Base 1.2.31
 _ZTIN12kyotocabinet10ComparatorE@Base 1.2.31
 _ZTIN12kyotocabinet10CompressorE@Base 1.2.31
 _ZTIN12kyotocabinet13LZOCompressorILNS_3LZO4ModeE0EEE@Base 1.2.31
 _ZTIN12kyotocabinet13LZOCompressorILNS_3LZO4ModeE1EEE@Base 1.2.31
 _ZTIN12kyotocabinet14LZMACompressorILNS_4LZMA4ModeE0EEE@Base 1.2.31
 _ZTIN12kyotocabinet14LZMACompressorILNS_4LZMA4ModeE1EEE@Base 1.2.31
 _ZTIN12kyotocabinet14LZMACompressorILNS_4LZMA4ModeE2EEE@Base 1.2.31
 _ZTIN12kyotocabinet14ZLIBCompressorILNS_4ZLIB4ModeE0EEE@Base 1.2.31
 _ZTIN12kyotocabinet14ZLIBCompressorILNS_4ZLIB4ModeE1EEE@Base 1.2.31
 _ZTIN12kyotocabinet14ZLIBCompressorILNS_4ZLIB4ModeE2EEE@Base 1.2.31
 _ZTIN12kyotocabinet17ArcfourCompressorE@Base 1.2.31
 _ZTIN12kyotocabinet17DecimalComparatorE@Base 1.2.31
 _ZTIN12kyotocabinet17LexicalComparatorE@Base 1.2.31
 _ZTIN12kyotocabinet27DecimalDescendingComparatorE@Base 1.2.40
 _ZTIN12kyotocabinet27LexicalDescendingComparatorE@Base 1.2.40
 _ZTIN12kyotocabinet2DB6CursorE@Base 1.2.31
 _ZTIN12kyotocabinet2DB7VisitorE@Base 1.2.31
 _ZTIN12kyotocabinet2DBE@Base 1.2.31
 _ZTIN12kyotocabinet5DirDB6CursorE@Base 1.2.31
 _ZTIN12kyotocabinet5DirDBE@Base 1.2.31
 _ZTIN12kyotocabinet6HashDB6CursorE@Base 1.2.31
 _ZTIN12kyotocabinet6HashDB8RepeaterE@Base 1.2.31
 _ZTIN12kyotocabinet6HashDBE@Base 1.2.31
 _ZTIN12kyotocabinet6PolyDB12StreamLoggerE@Base 1.2.31
 _ZTIN12kyotocabinet6PolyDB17StreamMetaTriggerE@Base 1.2.31
 _ZTIN12kyotocabinet6PolyDB6CursorE@Base 1.2.31
 _ZTIN12kyotocabinet6PolyDBE@Base 1.2.31
 _ZTIN12kyotocabinet6ThreadE@Base 1.2.31
 _ZTIN12kyotocabinet7BasicDB11MetaTriggerE@Base 1.2.31
 _ZTIN12kyotocabinet7BasicDB13FileProcessorE@Base 1.2.31
 _ZTIN12kyotocabinet7BasicDB6CursorE@Base 1.2.31
 _ZTIN12kyotocabinet7BasicDB6LoggerE@Base 1.2.31
 _ZTIN12kyotocabinet7BasicDBE@Base 1.2.31
 _ZTIN12kyotocabinet7CacheDB6CursorE@Base 1.2.31
 _ZTIN12kyotocabinet7CacheDB6SetterE@Base 1.2.31
 _ZTIN12kyotocabinet7CacheDB7RemoverE@Base 1.2.31
 _ZTIN12kyotocabinet7CacheDB8RepeaterE@Base 1.2.31
 _ZTIN12kyotocabinet7CacheDBE@Base 1.2.31
 _ZTIN12kyotocabinet7PlantDBINS_5DirDBELh65EE6CursorE@Base 1.2.31
 _ZTIN12kyotocabinet7PlantDBINS_5DirDBELh65EEE@Base 1.2.31
 _ZTIN12kyotocabinet7PlantDBINS_6HashDBELh49EE6CursorE@Base 1.2.31
 _ZTIN12kyotocabinet7PlantDBINS_6HashDBELh49EEE@Base 1.2.31
 _ZTIN12kyotocabinet7PlantDBINS_7CacheDBELh33EE6CursorE@Base 1.2.31
 _ZTIN12kyotocabinet7PlantDBINS_7CacheDBELh33EEE@Base 1.2.31
 _ZTIN12kyotocabinet7ProtoDBINSt3tr113unordered_mapISsSsNS1_4hashISsEESt8equal_toISsESaISt4pairIKSsSsEEEELh16EE6CursorE@Base 1.2.31
 _ZTIN12kyotocabinet7ProtoDBINSt3tr113unordered_mapISsSsNS1_4hashISsEESt8equal_toISsESaISt4pairIKSsSsEEEELh16EEE@Base 1.2.31
 _ZTIN12kyotocabinet7ProtoDBISt3mapISsSsSt4lessISsESaISt4pairIKSsSsEEELh17EE6CursorE@Base 1.2.31
 _ZTIN12kyotocabinet7ProtoDBISt3mapISsSsSt4lessISsESaISt4pairIKSsSsEEELh17EEE@Base 1.2.31
 _ZTIN12kyotocabinet7StashDB6CursorE@Base 1.2.31
 _ZTIN12kyotocabinet7StashDB6SetterE@Base 1.2.31
 _ZTIN12kyotocabinet7StashDB7RemoverE@Base 1.2.31
 _ZTIN12kyotocabinet7StashDB8RepeaterE@Base 1.2.31
 _ZTIN12kyotocabinet7StashDBE@Base 1.2.31
 _ZTISt16invalid_argument@Base 1.2.31
 _ZTIZ10kcdbacceptE11VisitorImpl@Base 1.2.31
 _ZTIZ11kccuracceptE11VisitorImpl@Base 1.2.31
 _ZTIZ11kcdbiterateE11VisitorImpl@Base 1.2.31
 _ZTIZ14kcdbacceptbulkE11VisitorImpl@Base 1.2.32
 _ZTIZ8kcdbsyncE17FileProcessorImpl@Base 1.2.31
 _ZTIZN12kyotocabinet7BasicDB11remove_bulkERKSt6vectorISsSaISsEEbE11VisitorImpl@Base 1.2.32
 _ZTIZN12kyotocabinet7BasicDB13dump_snapshotEPSoPNS0_15ProgressCheckerEE11VisitorImpl@Base 1.2.31
 _ZTIZN12kyotocabinet7BasicDB16increment_doubleEPKcmdE11VisitorImpl@Base 1.2.31
 _ZTIZN12kyotocabinet7BasicDB3addEPKcmS2_mE11VisitorImpl@Base 1.2.31
 _ZTIZN12kyotocabinet7BasicDB3casEPKcmS2_mS2_mE11VisitorImpl@Base 1.2.31
 _ZTIZN12kyotocabinet7BasicDB3getEPKcmPcmE11VisitorImpl@Base 1.2.31
 _ZTIZN12kyotocabinet7BasicDB3getEPKcmPmE11VisitorImpl@Base 1.2.31
 _ZTIZN12kyotocabinet7BasicDB3setEPKcmS2_mE11VisitorImpl@Base 1.2.31
 _ZTIZN12kyotocabinet7BasicDB4copyERKSsPNS0_15ProgressCheckerEE17FileProcessorImpl@Base 1.2.31
 _ZTIZN12kyotocabinet7BasicDB6Cursor3getEPmPPKcS2_bE11VisitorImpl@Base 1.2.31
 _ZTIZN12kyotocabinet7BasicDB6Cursor6removeEvE11VisitorImpl@Base 1.2.31
 _ZTIZN12kyotocabinet7BasicDB6Cursor7get_keyEPmbE11VisitorImpl@Base 1.2.31
 _ZTIZN12kyotocabinet7BasicDB6Cursor8get_pairEbE11VisitorImpl@Base 1.2.31
 _ZTIZN12kyotocabinet7BasicDB6Cursor9get_valueEPmbE11VisitorImpl@Base 1.2.31
 _ZTIZN12kyotocabinet7BasicDB6Cursor9set_valueEPKcmbE11VisitorImpl@Base 1.2.31
 _ZTIZN12kyotocabinet7BasicDB6appendEPKcmS2_mE11VisitorImpl@Base 1.2.31
 _ZTIZN12kyotocabinet7BasicDB6removeEPKcmE11VisitorImpl@Base 1.2.31
 _ZTIZN12kyotocabinet7BasicDB7replaceEPKcmS2_mE11VisitorImpl@Base 1.2.31
 _ZTIZN12kyotocabinet7BasicDB8get_bulkERKSt6vectorISsSaISsEEPSt3mapISsSsSt4lessISsESaISt4pairIKSsSsEEEbE11VisitorImpl@Base 1.2.32
 _ZTIZN12kyotocabinet7BasicDB8set_bulkERKSt3mapISsSsSt4lessISsESaISt4pairIKSsSsEEEbE11VisitorImpl@Base 1.2.32
 _ZTIZN12kyotocabinet7BasicDB9incrementEPKcmlE11VisitorImpl@Base 1.2.31
 _ZTIZN12kyotocabinet7PlantDBINS_5DirDBELh65EE11synchronizeEbPNS_7BasicDB13FileProcessorEPNS3_15ProgressCheckerEE7Wrapper@Base 1.2.31
 _ZTIZN12kyotocabinet7PlantDBINS_5DirDBELh65EE12recalc_countEvE11VisitorImpl@Base 1.2.31
 _ZTIZN12kyotocabinet7PlantDBINS_5DirDBELh65EE14load_leaf_nodeElbE11VisitorImpl@Base 1.2.31
 _ZTIZN12kyotocabinet7PlantDBINS_5DirDBELh65EE15load_inner_nodeElE11VisitorImpl@Base 1.2.31
 _ZTIZN12kyotocabinet7PlantDBINS_6HashDBELh49EE11synchronizeEbPNS_7BasicDB13FileProcessorEPNS3_15ProgressCheckerEE7Wrapper@Base 1.2.31
 _ZTIZN12kyotocabinet7PlantDBINS_6HashDBELh49EE12recalc_countEvE11VisitorImpl@Base 1.2.31
 _ZTIZN12kyotocabinet7PlantDBINS_6HashDBELh49EE14load_leaf_nodeElbE11VisitorImpl@Base 1.2.31
 _ZTIZN12kyotocabinet7PlantDBINS_6HashDBELh49EE15load_inner_nodeElE11VisitorImpl@Base 1.2.31
 _ZTIZN12kyotocabinet7PlantDBINS_7CacheDBELh33EE11synchronizeEbPNS_7BasicDB13FileProcessorEPNS3_15ProgressCheckerEE7Wrapper@Base 1.2.31
 _ZTIZN12kyotocabinet7PlantDBINS_7CacheDBELh33EE12recalc_countEvE11VisitorImpl@Base 1.2.31
 _ZTIZN12kyotocabinet7PlantDBINS_7CacheDBELh33EE14load_leaf_nodeElbE11VisitorImpl@Base 1.2.31
 _ZTIZN12kyotocabinet7PlantDBINS_7CacheDBELh33EE15load_inner_nodeElE11VisitorImpl@Base 1.2.31
 _ZTSN12kyotocabinet10ComparatorE@Base 1.2.31
 _ZTSN12kyotocabinet10CompressorE@Base 1.2.31
 _ZTSN12kyotocabinet13LZOCompressorILNS_3LZO4ModeE0EEE@Base 1.2.31
 _ZTSN12kyotocabinet13LZOCompressorILNS_3LZO4ModeE1EEE@Base 1.2.31
 _ZTSN12kyotocabinet14LZMACompressorILNS_4LZMA4ModeE0EEE@Base 1.2.31
 _ZTSN12kyotocabinet14LZMACompressorILNS_4LZMA4ModeE1EEE@Base 1.2.31
 _ZTSN12kyotocabinet14LZMACompressorILNS_4LZMA4ModeE2EEE@Base 1.2.31
 _ZTSN12kyotocabinet14ZLIBCompressorILNS_4ZLIB4ModeE0EEE@Base 1.2.31
 _ZTSN12kyotocabinet14ZLIBCompressorILNS_4ZLIB4ModeE1EEE@Base 1.2.31
 _ZTSN12kyotocabinet14ZLIBCompressorILNS_4ZLIB4ModeE2EEE@Base 1.2.31
 _ZTSN12kyotocabinet17ArcfourCompressorE@Base 1.2.31
 _ZTSN12kyotocabinet17DecimalComparatorE@Base 1.2.31
 _ZTSN12kyotocabinet17LexicalComparatorE@Base 1.2.31
 _ZTSN12kyotocabinet27DecimalDescendingComparatorE@Base 1.2.40
 _ZTSN12kyotocabinet27LexicalDescendingComparatorE@Base 1.2.40
 _ZTSN12kyotocabinet2DB6CursorE@Base 1.2.31
 _ZTSN12kyotocabinet2DB7VisitorE@Base 1.2.31
 _ZTSN12kyotocabinet2DBE@Base 1.2.31
 _ZTSN12kyotocabinet5DirDB6CursorE@Base 1.2.31
 _ZTSN12kyotocabinet5DirDBE@Base 1.2.31
 _ZTSN12kyotocabinet6HashDB6CursorE@Base 1.2.31
 _ZTSN12kyotocabinet6HashDB8RepeaterE@Base 1.2.31
 _ZTSN12kyotocabinet6HashDBE@Base 1.2.31
 _ZTSN12kyotocabinet6PolyDB12StreamLoggerE@Base 1.2.31
 _ZTSN12kyotocabinet6PolyDB17StreamMetaTriggerE@Base 1.2.31
 _ZTSN12kyotocabinet6PolyDB6CursorE@Base 1.2.31
 _ZTSN12kyotocabinet6PolyDBE@Base 1.2.31
 _ZTSN12kyotocabinet6ThreadE@Base 1.2.31
 _ZTSN12kyotocabinet7BasicDB11MetaTriggerE@Base 1.2.31
 _ZTSN12kyotocabinet7BasicDB13FileProcessorE@Base 1.2.31
 _ZTSN12kyotocabinet7BasicDB6CursorE@Base 1.2.31
 _ZTSN12kyotocabinet7BasicDB6LoggerE@Base 1.2.31
 _ZTSN12kyotocabinet7BasicDBE@Base 1.2.31
 _ZTSN12kyotocabinet7CacheDB6CursorE@Base 1.2.31
 _ZTSN12kyotocabinet7CacheDB6SetterE@Base 1.2.31
 _ZTSN12kyotocabinet7CacheDB7RemoverE@Base 1.2.31
 _ZTSN12kyotocabinet7CacheDB8RepeaterE@Base 1.2.31
 _ZTSN12kyotocabinet7CacheDBE@Base 1.2.31
 _ZTSN12kyotocabinet7PlantDBINS_5DirDBELh65EE6CursorE@Base 1.2.31
 _ZTSN12kyotocabinet7PlantDBINS_5DirDBELh65EEE@Base 1.2.31
 _ZTSN12kyotocabinet7PlantDBINS_6HashDBELh49EE6CursorE@Base 1.2.31
 _ZTSN12kyotocabinet7PlantDBINS_6HashDBELh49EEE@Base 1.2.31
 _ZTSN12kyotocabinet7PlantDBINS_7CacheDBELh33EE6CursorE@Base 1.2.31
 _ZTSN12kyotocabinet7PlantDBINS_7CacheDBELh33EEE@Base 1.2.31
 _ZTSN12kyotocabinet7ProtoDBINSt3tr113unordered_mapISsSsNS1_4hashISsEESt8equal_toISsESaISt4pairIKSsSsEEEELh16EE6CursorE@Base 1.2.31
 _ZTSN12kyotocabinet7ProtoDBINSt3tr113unordered_mapISsSsNS1_4hashISsEESt8equal_toISsESaISt4pairIKSsSsEEEELh16EEE@Base 1.2.31
 _ZTSN12kyotocabinet7ProtoDBISt3mapISsSsSt4lessISsESaISt4pairIKSsSsEEELh17EE6CursorE@Base 1.2.31
 _ZTSN12kyotocabinet7ProtoDBISt3mapISsSsSt4lessISsESaISt4pairIKSsSsEEELh17EEE@Base 1.2.31
 _ZTSN12kyotocabinet7StashDB6CursorE@Base 1.2.31
 _ZTSN12kyotocabinet7StashDB6SetterE@Base 1.2.31
 _ZTSN12kyotocabinet7StashDB7RemoverE@Base 1.2.31
 _ZTSN12kyotocabinet7StashDB8RepeaterE@Base 1.2.31
 _ZTSN12kyotocabinet7StashDBE@Base 1.2.31
 _ZTSSt16invalid_argument@Base 1.2.31
 _ZTSZ10kcdbacceptE11VisitorImpl@Base 1.2.31
 _ZTSZ11kccuracceptE11VisitorImpl@Base 1.2.31
 _ZTSZ11kcdbiterateE11VisitorImpl@Base 1.2.31
 _ZTSZ14kcdbacceptbulkE11VisitorImpl@Base 1.2.32
 _ZTSZ8kcdbsyncE17FileProcessorImpl@Base 1.2.31
 _ZTSZN12kyotocabinet7BasicDB11remove_bulkERKSt6vectorISsSaISsEEbE11VisitorImpl@Base 1.2.32
 _ZTSZN12kyotocabinet7BasicDB13dump_snapshotEPSoPNS0_15ProgressCheckerEE11VisitorImpl@Base 1.2.31
 _ZTSZN12kyotocabinet7BasicDB16increment_doubleEPKcmdE11VisitorImpl@Base 1.2.31
 _ZTSZN12kyotocabinet7BasicDB3addEPKcmS2_mE11VisitorImpl@Base 1.2.31
 _ZTSZN12kyotocabinet7BasicDB3casEPKcmS2_mS2_mE11VisitorImpl@Base 1.2.31
 _ZTSZN12kyotocabinet7BasicDB3getEPKcmPcmE11VisitorImpl@Base 1.2.31
 _ZTSZN12kyotocabinet7BasicDB3getEPKcmPmE11VisitorImpl@Base 1.2.31
 _ZTSZN12kyotocabinet7BasicDB3setEPKcmS2_mE11VisitorImpl@Base 1.2.31
 _ZTSZN12kyotocabinet7BasicDB4copyERKSsPNS0_15ProgressCheckerEE17FileProcessorImpl@Base 1.2.31
 _ZTSZN12kyotocabinet7BasicDB6Cursor3getEPmPPKcS2_bE11VisitorImpl@Base 1.2.31
 _ZTSZN12kyotocabinet7BasicDB6Cursor6removeEvE11VisitorImpl@Base 1.2.31
 _ZTSZN12kyotocabinet7BasicDB6Cursor7get_keyEPmbE11VisitorImpl@Base 1.2.31
 _ZTSZN12kyotocabinet7BasicDB6Cursor8get_pairEbE11VisitorImpl@Base 1.2.31
 _ZTSZN12kyotocabinet7BasicDB6Cursor9get_valueEPmbE11VisitorImpl@Base 1.2.31
 _ZTSZN12kyotocabinet7BasicDB6Cursor9set_valueEPKcmbE11VisitorImpl@Base 1.2.31
 _ZTSZN12kyotocabinet7BasicDB6appendEPKcmS2_mE11VisitorImpl@Base 1.2.31
 _ZTSZN12kyotocabinet7BasicDB6removeEPKcmE11VisitorImpl@Base 1.2.31
 _ZTSZN12kyotocabinet7BasicDB7replaceEPKcmS2_mE11VisitorImpl@Base 1.2.31
 _ZTSZN12kyotocabinet7BasicDB8get_bulkERKSt6vectorISsSaISsEEPSt3mapISsSsSt4lessISsESaISt4pairIKSsSsEEEbE11VisitorImpl@Base 1.2.32
 _ZTSZN12kyotocabinet7BasicDB8set_bulkERKSt3mapISsSsSt4lessISsESaISt4pairIKSsSsEEEbE11VisitorImpl@Base 1.2.32
 _ZTSZN12kyotocabinet7BasicDB9incrementEPKcmlE11VisitorImpl@Base 1.2.31
 _ZTSZN12kyotocabinet7PlantDBINS_5DirDBELh65EE11synchronizeEbPNS_7BasicDB13FileProcessorEPNS3_15ProgressCheckerEE7Wrapper@Base 1.2.31
 _ZTSZN12kyotocabinet7PlantDBINS_5DirDBELh65EE12recalc_countEvE11VisitorImpl@Base 1.2.31
 _ZTSZN12kyotocabinet7PlantDBINS_5DirDBELh65EE14load_leaf_nodeElbE11VisitorImpl@Base 1.2.31
 _ZTSZN12kyotocabinet7PlantDBINS_5DirDBELh65EE15load_inner_nodeElE11VisitorImpl@Base 1.2.31
 _ZTSZN12kyotocabinet7PlantDBINS_6HashDBELh49EE11synchronizeEbPNS_7BasicDB13FileProcessorEPNS3_15ProgressCheckerEE7Wrapper@Base 1.2.31
 _ZTSZN12kyotocabinet7PlantDBINS_6HashDBELh49EE12recalc_countEvE11VisitorImpl@Base 1.2.31
 _ZTSZN12kyotocabinet7PlantDBINS_6HashDBELh49EE14load_leaf_nodeElbE11VisitorImpl@Base 1.2.31
 _ZTSZN12kyotocabinet7PlantDBINS_6HashDBELh49EE15load_inner_nodeElE11VisitorImpl@Base 1.2.31
 _ZTSZN12kyotocabinet7PlantDBINS_7CacheDBELh33EE11synchronizeEbPNS_7BasicDB13FileProcessorEPNS3_15ProgressCheckerEE7Wrapper@Base 1.2.31
 _ZTSZN12kyotocabinet7PlantDBINS_7CacheDBELh33EE12recalc_countEvE11VisitorImpl@Base 1.2.31
 _ZTSZN12kyotocabinet7PlantDBINS_7CacheDBELh33EE14load_leaf_nodeElbE11VisitorImpl@Base 1.2.31
 _ZTSZN12kyotocabinet7PlantDBINS_7CacheDBELh33EE15load_inner_nodeElE11VisitorImpl@Base 1.2.31
 _ZTVN12kyotocabinet10ComparatorE@Base 1.2.31
 _ZTVN12kyotocabinet10CompressorE@Base 1.2.31
 _ZTVN12kyotocabinet13LZOCompressorILNS_3LZO4ModeE0EEE@Base 1.2.31
 _ZTVN12kyotocabinet13LZOCompressorILNS_3LZO4ModeE1EEE@Base 1.2.31
 _ZTVN12kyotocabinet14LZMACompressorILNS_4LZMA4ModeE0EEE@Base 1.2.31
 _ZTVN12kyotocabinet14LZMACompressorILNS_4LZMA4ModeE1EEE@Base 1.2.31
 _ZTVN12kyotocabinet14LZMACompressorILNS_4LZMA4ModeE2EEE@Base 1.2.31
 _ZTVN12kyotocabinet14ZLIBCompressorILNS_4ZLIB4ModeE0EEE@Base 1.2.31
 _ZTVN12kyotocabinet14ZLIBCompressorILNS_4ZLIB4ModeE1EEE@Base 1.2.31
 _ZTVN12kyotocabinet14ZLIBCompressorILNS_4ZLIB4ModeE2EEE@Base 1.2.31
 _ZTVN12kyotocabinet17ArcfourCompressorE@Base 1.2.31
 _ZTVN12kyotocabinet17DecimalComparatorE@Base 1.2.31
 _ZTVN12kyotocabinet17LexicalComparatorE@Base 1.2.31
 _ZTVN12kyotocabinet27DecimalDescendingComparatorE@Base 1.2.40
 _ZTVN12kyotocabinet27LexicalDescendingComparatorE@Base 1.2.40
 _ZTVN12kyotocabinet2DB6CursorE@Base 1.2.31
 _ZTVN12kyotocabinet2DB7VisitorE@Base 1.2.31
 _ZTVN12kyotocabinet2DBE@Base 1.2.31
 _ZTVN12kyotocabinet5DirDB6CursorE@Base 1.2.31
 _ZTVN12kyotocabinet5DirDBE@Base 1.2.31
 _ZTVN12kyotocabinet6HashDB6CursorE@Base 1.2.31
 _ZTVN12kyotocabinet6HashDB8RepeaterE@Base 1.2.31
 _ZTVN12kyotocabinet6HashDBE@Base 1.2.31
 _ZTVN12kyotocabinet6PolyDB12StreamLoggerE@Base 1.2.31
 _ZTVN12kyotocabinet6PolyDB17StreamMetaTriggerE@Base 1.2.31
 _ZTVN12kyotocabinet6PolyDB6CursorE@Base 1.2.31
 _ZTVN12kyotocabinet6PolyDBE@Base 1.2.31
 _ZTVN12kyotocabinet6ThreadE@Base 1.2.31
 _ZTVN12kyotocabinet7BasicDB11MetaTriggerE@Base 1.2.31
 _ZTVN12kyotocabinet7BasicDB13FileProcessorE@Base 1.2.31
 _ZTVN12kyotocabinet7BasicDB6CursorE@Base 1.2.31
 _ZTVN12kyotocabinet7BasicDB6LoggerE@Base 1.2.31
 _ZTVN12kyotocabinet7BasicDBE@Base 1.2.31
 _ZTVN12kyotocabinet7CacheDB6CursorE@Base 1.2.31
 _ZTVN12kyotocabinet7CacheDB6SetterE@Base 1.2.31
 _ZTVN12kyotocabinet7CacheDB7RemoverE@Base 1.2.31
 _ZTVN12kyotocabinet7CacheDB8RepeaterE@Base 1.2.31
 _ZTVN12kyotocabinet7CacheDBE@Base 1.2.31
 _ZTVN12kyotocabinet7PlantDBINS_5DirDBELh65EE6CursorE@Base 1.2.31
 _ZTVN12kyotocabinet7PlantDBINS_5DirDBELh65EEE@Base 1.2.31
 _ZTVN12kyotocabinet7PlantDBINS_6HashDBELh49EE6CursorE@Base 1.2.31
 _ZTVN12kyotocabinet7PlantDBINS_6HashDBELh49EEE@Base 1.2.31
 _ZTVN12kyotocabinet7PlantDBINS_7CacheDBELh33EE6CursorE@Base 1.2.31
 _ZTVN12kyotocabinet7PlantDBINS_7CacheDBELh33EEE@Base 1.2.31
 _ZTVN12kyotocabinet7ProtoDBINSt3tr113unordered_mapISsSsNS1_4hashISsEESt8equal_toISsESaISt4pairIKSsSsEEEELh16EE6CursorE@Base 1.2.31
 _ZTVN12kyotocabinet7ProtoDBINSt3tr113unordered_mapISsSsNS1_4hashISsEESt8equal_toISsESaISt4pairIKSsSsEEEELh16EEE@Base 1.2.31
 _ZTVN12kyotocabinet7ProtoDBISt3mapISsSsSt4lessISsESaISt4pairIKSsSsEEELh17EE6CursorE@Base 1.2.31
 _ZTVN12kyotocabinet7ProtoDBISt3mapISsSsSt4lessISsESaISt4pairIKSsSsEEELh17EEE@Base 1.2.31
 _ZTVN12kyotocabinet7StashDB6CursorE@Base 1.2.31
 _ZTVN12kyotocabinet7StashDB6SetterE@Base 1.2.31
 _ZTVN12kyotocabinet7StashDB7RemoverE@Base 1.2.31
 _ZTVN12kyotocabinet7StashDB8RepeaterE@Base 1.2.31
 _ZTVN12kyotocabinet7StashDBE@Base 1.2.31
 _ZTVSt16invalid_argument@Base 1.2.31
 _ZTVZ10kcdbacceptE11VisitorImpl@Base 1.2.31
 _ZTVZ11kccuracceptE11VisitorImpl@Base 1.2.31
 _ZTVZ11kcdbiterateE11VisitorImpl@Base 1.2.31
 _ZTVZ14kcdbacceptbulkE11VisitorImpl@Base 1.2.32
 _ZTVZ8kcdbsyncE17FileProcessorImpl@Base 1.2.31
 _ZTVZN12kyotocabinet7BasicDB11remove_bulkERKSt6vectorISsSaISsEEbE11VisitorImpl@Base 1.2.32
 _ZTVZN12kyotocabinet7BasicDB13dump_snapshotEPSoPNS0_15ProgressCheckerEE11VisitorImpl@Base 1.2.31
 _ZTVZN12kyotocabinet7BasicDB16increment_doubleEPKcmdE11VisitorImpl@Base 1.2.31
 _ZTVZN12kyotocabinet7BasicDB3addEPKcmS2_mE11VisitorImpl@Base 1.2.31
 _ZTVZN12kyotocabinet7BasicDB3casEPKcmS2_mS2_mE11VisitorImpl@Base 1.2.31
 _ZTVZN12kyotocabinet7BasicDB3getEPKcmPcmE11VisitorImpl@Base 1.2.31
 _ZTVZN12kyotocabinet7BasicDB3getEPKcmPmE11VisitorImpl@Base 1.2.31
 _ZTVZN12kyotocabinet7BasicDB3setEPKcmS2_mE11VisitorImpl@Base 1.2.31
 _ZTVZN12kyotocabinet7BasicDB4copyERKSsPNS0_15ProgressCheckerEE17FileProcessorImpl@Base 1.2.31
 _ZTVZN12kyotocabinet7BasicDB6Cursor3getEPmPPKcS2_bE11VisitorImpl@Base 1.2.31
 _ZTVZN12kyotocabinet7BasicDB6Cursor6removeEvE11VisitorImpl@Base 1.2.31
 _ZTVZN12kyotocabinet7BasicDB6Cursor7get_keyEPmbE11VisitorImpl@Base 1.2.31
 _ZTVZN12kyotocabinet7BasicDB6Cursor8get_pairEbE11VisitorImpl@Base 1.2.31
 _ZTVZN12kyotocabinet7BasicDB6Cursor9get_valueEPmbE11VisitorImpl@Base 1.2.31
 _ZTVZN12kyotocabinet7BasicDB6Cursor9set_valueEPKcmbE11VisitorImpl@Base 1.2.31
 _ZTVZN12kyotocabinet7BasicDB6appendEPKcmS2_mE11VisitorImpl@Base 1.2.31
 _ZTVZN12kyotocabinet7BasicDB6removeEPKcmE11VisitorImpl@Base 1.2.31
 _ZTVZN12kyotocabinet7BasicDB7replaceEPKcmS2_mE11VisitorImpl@Base 1.2.31
 _ZTVZN12kyotocabinet7BasicDB8get_bulkERKSt6vectorISsSaISsEEPSt3mapISsSsSt4lessISsESaISt4pairIKSsSsEEEbE11VisitorImpl@Base 1.2.32
 _ZTVZN12kyotocabinet7BasicDB8set_bulkERKSt3mapISsSsSt4lessISsESaISt4pairIKSsSsEEEbE11VisitorImpl@Base 1.2.32
 _ZTVZN12kyotocabinet7BasicDB9incrementEPKcmlE11VisitorImpl@Base 1.2.31
 _ZTVZN12kyotocabinet7PlantDBINS_5DirDBELh65EE11synchronizeEbPNS_7BasicDB13FileProcessorEPNS3_15ProgressCheckerEE7Wrapper@Base 1.2.31
 _ZTVZN12kyotocabinet7PlantDBINS_5DirDBELh65EE12recalc_countEvE11VisitorImpl@Base 1.2.31
 _ZTVZN12kyotocabinet7PlantDBINS_5DirDBELh65EE14load_leaf_nodeElbE11VisitorImpl@Base 1.2.31
 _ZTVZN12kyotocabinet7PlantDBINS_5DirDBELh65EE15load_inner_nodeElE11VisitorImpl@Base 1.2.31
 _ZTVZN12kyotocabinet7PlantDBINS_6HashDBELh49EE11synchronizeEbPNS_7BasicDB13FileProcessorEPNS3_15ProgressCheckerEE7Wrapper@Base 1.2.31
 _ZTVZN12kyotocabinet7PlantDBINS_6HashDBELh49EE12recalc_countEvE11VisitorImpl@Base 1.2.31
 _ZTVZN12kyotocabinet7PlantDBINS_6HashDBELh49EE14load_leaf_nodeElbE11VisitorImpl@Base 1.2.31
 _ZTVZN12kyotocabinet7PlantDBINS_6HashDBELh49EE15load_inner_nodeElE11VisitorImpl@Base 1.2.31
 _ZTVZN12kyotocabinet7PlantDBINS_7CacheDBELh33EE11synchronizeEbPNS_7BasicDB13FileProcessorEPNS3_15ProgressCheckerEE7Wrapper@Base 1.2.31
 _ZTVZN12kyotocabinet7PlantDBINS_7CacheDBELh33EE12recalc_countEvE11VisitorImpl@Base 1.2.31
 _ZTVZN12kyotocabinet7PlantDBINS_7CacheDBELh33EE14load_leaf_nodeElbE11VisitorImpl@Base 1.2.31
 _ZTVZN12kyotocabinet7PlantDBINS_7CacheDBELh33EE15load_inner_nodeElE11VisitorImpl@Base 1.2.31
 _ZZ10kcdbacceptEN11VisitorImplD0Ev@Base 1.2.31
 _ZZ10kcdbacceptEN11VisitorImplD1Ev@Base 1.2.31
 _ZZ10kcdbacceptEN11VisitorImplD2Ev@Base 1.2.31
 _ZZ11kccuracceptEN11VisitorImplD0Ev@Base 1.2.31
 _ZZ11kccuracceptEN11VisitorImplD1Ev@Base 1.2.31
 _ZZ11kccuracceptEN11VisitorImplD2Ev@Base 1.2.31
 _ZZ11kcdbiterateEN11VisitorImplD0Ev@Base 1.2.31
 _ZZ11kcdbiterateEN11VisitorImplD1Ev@Base 1.2.31
 _ZZ11kcdbiterateEN11VisitorImplD2Ev@Base 1.2.31
 _ZZ14kcdbacceptbulkEN11VisitorImplD0Ev@Base 1.2.32
 _ZZ14kcdbacceptbulkEN11VisitorImplD1Ev@Base 1.2.32
 _ZZ14kcdbacceptbulkEN11VisitorImplD2Ev@Base 1.2.32
 _ZZ8kcdbsyncEN17FileProcessorImplD0Ev@Base 1.2.31
 _ZZ8kcdbsyncEN17FileProcessorImplD1Ev@Base 1.2.31
 _ZZ8kcdbsyncEN17FileProcessorImplD2Ev@Base 1.2.31
 _ZZN12kyotocabinet11nearbyprimeEmE4tnum@Base 1.2.31
 _ZZN12kyotocabinet11nearbyprimeEmE5table@Base 1.2.31
 _ZZN12kyotocabinet7BasicDB11remove_bulkERKSt6vectorISsSaISsEEbEN11VisitorImpl10visit_fullEPKcmS8_mPm@Base 1.2.32
 _ZZN12kyotocabinet7BasicDB11remove_bulkERKSt6vectorISsSaISsEEbEN11VisitorImplC1Ev@Base 1.2.32
 _ZZN12kyotocabinet7BasicDB11remove_bulkERKSt6vectorISsSaISsEEbEN11VisitorImplD0Ev@Base 1.2.32
 _ZZN12kyotocabinet7BasicDB11remove_bulkERKSt6vectorISsSaISsEEbEN11VisitorImplD1Ev@Base 1.2.32
 _ZZN12kyotocabinet7BasicDB11remove_bulkERKSt6vectorISsSaISsEEbENK11VisitorImpl3cntEv@Base 1.2.32
 _ZZN12kyotocabinet7BasicDB13dump_snapshotEPSoPNS0_15ProgressCheckerEEN11VisitorImpl10visit_fullEPKcmS6_mPm@Base 1.2.31
 _ZZN12kyotocabinet7BasicDB13dump_snapshotEPSoPNS0_15ProgressCheckerEEN11VisitorImplC1ES1_@Base 1.2.31
 _ZZN12kyotocabinet7BasicDB13dump_snapshotEPSoPNS0_15ProgressCheckerEEN11VisitorImplD0Ev@Base 1.2.31
 _ZZN12kyotocabinet7BasicDB13dump_snapshotEPSoPNS0_15ProgressCheckerEEN11VisitorImplD1Ev@Base 1.2.31
 _ZZN12kyotocabinet7BasicDB16increment_doubleEPKcmdEN11VisitorImpl10visit_fullES2_mS2_mPm@Base 1.2.31
 _ZZN12kyotocabinet7BasicDB16increment_doubleEPKcmdEN11VisitorImpl11visit_emptyES2_mPm@Base 1.2.31
 _ZZN12kyotocabinet7BasicDB16increment_doubleEPKcmdEN11VisitorImpl3numEv@Base 1.2.31
 _ZZN12kyotocabinet7BasicDB16increment_doubleEPKcmdEN11VisitorImplC1Ed@Base 1.2.31
 _ZZN12kyotocabinet7BasicDB16increment_doubleEPKcmdEN11VisitorImplD0Ev@Base 1.2.31
 _ZZN12kyotocabinet7BasicDB16increment_doubleEPKcmdEN11VisitorImplD1Ev@Base 1.2.31
 _ZZN12kyotocabinet7BasicDB3addEPKcmS2_mEN11VisitorImpl11visit_emptyES2_mPm@Base 1.2.31
 _ZZN12kyotocabinet7BasicDB3addEPKcmS2_mEN11VisitorImplC1ES2_m@Base 1.2.31
 _ZZN12kyotocabinet7BasicDB3addEPKcmS2_mEN11VisitorImplD0Ev@Base 1.2.31
 _ZZN12kyotocabinet7BasicDB3addEPKcmS2_mEN11VisitorImplD1Ev@Base 1.2.31
 _ZZN12kyotocabinet7BasicDB3addEPKcmS2_mENK11VisitorImpl2okEv@Base 1.2.31
 _ZZN12kyotocabinet7BasicDB3casEPKcmS2_mS2_mEN11VisitorImpl10visit_fullES2_mS2_mPm@Base 1.2.31
 _ZZN12kyotocabinet7BasicDB3casEPKcmS2_mS2_mEN11VisitorImpl11visit_emptyES2_mPm@Base 1.2.31
 _ZZN12kyotocabinet7BasicDB3casEPKcmS2_mS2_mEN11VisitorImplC1ES2_mS2_m@Base 1.2.31
 _ZZN12kyotocabinet7BasicDB3casEPKcmS2_mS2_mEN11VisitorImplD0Ev@Base 1.2.31
 _ZZN12kyotocabinet7BasicDB3casEPKcmS2_mS2_mEN11VisitorImplD1Ev@Base 1.2.31
 _ZZN12kyotocabinet7BasicDB3casEPKcmS2_mS2_mENK11VisitorImpl2okEv@Base 1.2.31
 _ZZN12kyotocabinet7BasicDB3getEPKcmPcmEN11VisitorImpl10visit_fullES2_mS2_mPm@Base 1.2.31
 _ZZN12kyotocabinet7BasicDB3getEPKcmPcmEN11VisitorImpl4vsizEv@Base 1.2.31
 _ZZN12kyotocabinet7BasicDB3getEPKcmPcmEN11VisitorImplC1ES3_m@Base 1.2.31
 _ZZN12kyotocabinet7BasicDB3getEPKcmPcmEN11VisitorImplD0Ev@Base 1.2.31
 _ZZN12kyotocabinet7BasicDB3getEPKcmPcmEN11VisitorImplD1Ev@Base 1.2.31
 _ZZN12kyotocabinet7BasicDB3getEPKcmPmEN11VisitorImpl10visit_fullES2_mS2_mS3_@Base 1.2.31
 _ZZN12kyotocabinet7BasicDB3getEPKcmPmEN11VisitorImpl3popES3_@Base 1.2.31
 _ZZN12kyotocabinet7BasicDB3getEPKcmPmEN11VisitorImplC1Ev@Base 1.2.31
 _ZZN12kyotocabinet7BasicDB3getEPKcmPmEN11VisitorImplD0Ev@Base 1.2.31
 _ZZN12kyotocabinet7BasicDB3getEPKcmPmEN11VisitorImplD1Ev@Base 1.2.31
 _ZZN12kyotocabinet7BasicDB3setEPKcmS2_mEN11VisitorImpl10visit_fullES2_mS2_mPm@Base 1.2.31
 _ZZN12kyotocabinet7BasicDB3setEPKcmS2_mEN11VisitorImpl11visit_emptyES2_mPm@Base 1.2.31
 _ZZN12kyotocabinet7BasicDB3setEPKcmS2_mEN11VisitorImplC1ES2_m@Base 1.2.31
 _ZZN12kyotocabinet7BasicDB3setEPKcmS2_mEN11VisitorImplD0Ev@Base 1.2.31
 _ZZN12kyotocabinet7BasicDB3setEPKcmS2_mEN11VisitorImplD1Ev@Base 1.2.31
 _ZZN12kyotocabinet7BasicDB4copyERKSsPNS0_15ProgressCheckerEEN17FileProcessorImpl7processES2_ll@Base 1.2.31
 _ZZN12kyotocabinet7BasicDB4copyERKSsPNS0_15ProgressCheckerEEN17FileProcessorImplC1ES2_S4_PS0_@Base 1.2.31
 _ZZN12kyotocabinet7BasicDB4copyERKSsPNS0_15ProgressCheckerEEN17FileProcessorImplD0Ev@Base 1.2.31
 _ZZN12kyotocabinet7BasicDB4copyERKSsPNS0_15ProgressCheckerEEN17FileProcessorImplD1Ev@Base 1.2.31
 _ZZN12kyotocabinet7BasicDB6Cursor3getEPmPPKcS2_bEN11VisitorImpl10visit_fullES4_mS4_mS2_@Base 1.2.31
 _ZZN12kyotocabinet7BasicDB6Cursor3getEPmPPKcS2_bEN11VisitorImpl3popES2_S5_S2_@Base 1.2.31
 _ZZN12kyotocabinet7BasicDB6Cursor3getEPmPPKcS2_bEN11VisitorImpl5clearEv@Base 1.2.31
 _ZZN12kyotocabinet7BasicDB6Cursor3getEPmPPKcS2_bEN11VisitorImplC1Ev@Base 1.2.31
 _ZZN12kyotocabinet7BasicDB6Cursor3getEPmPPKcS2_bEN11VisitorImplD0Ev@Base 1.2.31
 _ZZN12kyotocabinet7BasicDB6Cursor3getEPmPPKcS2_bEN11VisitorImplD1Ev@Base 1.2.31
 _ZZN12kyotocabinet7BasicDB6Cursor6removeEvEN11VisitorImpl10visit_fullEPKcmS4_mPm@Base 1.2.31
 _ZZN12kyotocabinet7BasicDB6Cursor6removeEvEN11VisitorImplC1Ev@Base 1.2.31
 _ZZN12kyotocabinet7BasicDB6Cursor6removeEvEN11VisitorImplD0Ev@Base 1.2.31
 _ZZN12kyotocabinet7BasicDB6Cursor6removeEvEN11VisitorImplD1Ev@Base 1.2.31
 _ZZN12kyotocabinet7BasicDB6Cursor6removeEvENK11VisitorImpl2okEv@Base 1.2.31
 _ZZN12kyotocabinet7BasicDB6Cursor7get_keyEPmbEN11VisitorImpl10visit_fullEPKcmS5_mS2_@Base 1.2.31
 _ZZN12kyotocabinet7BasicDB6Cursor7get_keyEPmbEN11VisitorImpl3popES2_@Base 1.2.31
 _ZZN12kyotocabinet7BasicDB6Cursor7get_keyEPmbEN11VisitorImpl5clearEv@Base 1.2.31
 _ZZN12kyotocabinet7BasicDB6Cursor7get_keyEPmbEN11VisitorImplC1Ev@Base 1.2.31
 _ZZN12kyotocabinet7BasicDB6Cursor7get_keyEPmbEN11VisitorImplD0Ev@Base 1.2.31
 _ZZN12kyotocabinet7BasicDB6Cursor7get_keyEPmbEN11VisitorImplD1Ev@Base 1.2.31
 _ZZN12kyotocabinet7BasicDB6Cursor8get_pairEbEN11VisitorImpl10visit_fullEPKcmS4_mPm@Base 1.2.31
 _ZZN12kyotocabinet7BasicDB6Cursor8get_pairEbEN11VisitorImpl3popEv@Base 1.2.31
 _ZZN12kyotocabinet7BasicDB6Cursor8get_pairEbEN11VisitorImplC1Ev@Base 1.2.31
 _ZZN12kyotocabinet7BasicDB6Cursor8get_pairEbEN11VisitorImplD0Ev@Base 1.2.31
 _ZZN12kyotocabinet7BasicDB6Cursor8get_pairEbEN11VisitorImplD1Ev@Base 1.2.31
 _ZZN12kyotocabinet7BasicDB6Cursor9get_valueEPmbEN11VisitorImpl10visit_fullEPKcmS5_mS2_@Base 1.2.31
 _ZZN12kyotocabinet7BasicDB6Cursor9get_valueEPmbEN11VisitorImpl3popES2_@Base 1.2.31
 _ZZN12kyotocabinet7BasicDB6Cursor9get_valueEPmbEN11VisitorImpl5clearEv@Base 1.2.31
 _ZZN12kyotocabinet7BasicDB6Cursor9get_valueEPmbEN11VisitorImplC1Ev@Base 1.2.31
 _ZZN12kyotocabinet7BasicDB6Cursor9get_valueEPmbEN11VisitorImplD0Ev@Base 1.2.31
 _ZZN12kyotocabinet7BasicDB6Cursor9get_valueEPmbEN11VisitorImplD1Ev@Base 1.2.31
 _ZZN12kyotocabinet7BasicDB6Cursor9set_valueEPKcmbEN11VisitorImpl10visit_fullES3_mS3_mPm@Base 1.2.31
 _ZZN12kyotocabinet7BasicDB6Cursor9set_valueEPKcmbEN11VisitorImplC1ES3_m@Base 1.2.31
 _ZZN12kyotocabinet7BasicDB6Cursor9set_valueEPKcmbEN11VisitorImplD0Ev@Base 1.2.31
 _ZZN12kyotocabinet7BasicDB6Cursor9set_valueEPKcmbEN11VisitorImplD1Ev@Base 1.2.31
 _ZZN12kyotocabinet7BasicDB6Cursor9set_valueEPKcmbENK11VisitorImpl2okEv@Base 1.2.31
 _ZZN12kyotocabinet7BasicDB6appendEPKcmS2_mEN11VisitorImpl10visit_fullES2_mS2_mPm@Base 1.2.31
 _ZZN12kyotocabinet7BasicDB6appendEPKcmS2_mEN11VisitorImpl11visit_emptyES2_mPm@Base 1.2.31
 _ZZN12kyotocabinet7BasicDB6appendEPKcmS2_mEN11VisitorImplC1ES2_m@Base 1.2.31
 _ZZN12kyotocabinet7BasicDB6appendEPKcmS2_mEN11VisitorImplD0Ev@Base 1.2.31
 _ZZN12kyotocabinet7BasicDB6appendEPKcmS2_mEN11VisitorImplD1Ev@Base 1.2.31
 _ZZN12kyotocabinet7BasicDB6removeEPKcmEN11VisitorImpl10visit_fullES2_mS2_mPm@Base 1.2.31
 _ZZN12kyotocabinet7BasicDB6removeEPKcmEN11VisitorImplC1Ev@Base 1.2.31
 _ZZN12kyotocabinet7BasicDB6removeEPKcmEN11VisitorImplD0Ev@Base 1.2.31
 _ZZN12kyotocabinet7BasicDB6removeEPKcmEN11VisitorImplD1Ev@Base 1.2.31
 _ZZN12kyotocabinet7BasicDB6removeEPKcmENK11VisitorImpl2okEv@Base 1.2.31
 _ZZN12kyotocabinet7BasicDB7replaceEPKcmS2_mEN11VisitorImpl10visit_fullES2_mS2_mPm@Base 1.2.31
 _ZZN12kyotocabinet7BasicDB7replaceEPKcmS2_mEN11VisitorImplC1ES2_m@Base 1.2.31
 _ZZN12kyotocabinet7BasicDB7replaceEPKcmS2_mEN11VisitorImplD0Ev@Base 1.2.31
 _ZZN12kyotocabinet7BasicDB7replaceEPKcmS2_mEN11VisitorImplD1Ev@Base 1.2.31
 _ZZN12kyotocabinet7BasicDB7replaceEPKcmS2_mENK11VisitorImpl2okEv@Base 1.2.31
 _ZZN12kyotocabinet7BasicDB8get_bulkERKSt6vectorISsSaISsEEPSt3mapISsSsSt4lessISsESaISt4pairIKSsSsEEEbEN11VisitorImpl10visit_fullEPKcmSH_mPm@Base 1.2.32
 _ZZN12kyotocabinet7BasicDB8get_bulkERKSt6vectorISsSaISsEEPSt3mapISsSsSt4lessISsESaISt4pairIKSsSsEEEbEN11VisitorImplC1ESE_@Base 1.2.32
 _ZZN12kyotocabinet7BasicDB8get_bulkERKSt6vectorISsSaISsEEPSt3mapISsSsSt4lessISsESaISt4pairIKSsSsEEEbEN11VisitorImplD0Ev@Base 1.2.32
 _ZZN12kyotocabinet7BasicDB8get_bulkERKSt6vectorISsSaISsEEPSt3mapISsSsSt4lessISsESaISt4pairIKSsSsEEEbEN11VisitorImplD1Ev@Base 1.2.32
 _ZZN12kyotocabinet7BasicDB8set_bulkERKSt3mapISsSsSt4lessISsESaISt4pairIKSsSsEEEbEN11VisitorImpl10visit_fullEPKcmSD_mPm@Base 1.2.32
 _ZZN12kyotocabinet7BasicDB8set_bulkERKSt3mapISsSsSt4lessISsESaISt4pairIKSsSsEEEbEN11VisitorImpl11visit_emptyEPKcmPm@Base 1.2.32
 _ZZN12kyotocabinet7BasicDB8set_bulkERKSt3mapISsSsSt4lessISsESaISt4pairIKSsSsEEEbEN11VisitorImplC1ESA_@Base 1.2.32
 _ZZN12kyotocabinet7BasicDB8set_bulkERKSt3mapISsSsSt4lessISsESaISt4pairIKSsSsEEEbEN11VisitorImplD0Ev@Base 1.2.32
 _ZZN12kyotocabinet7BasicDB8set_bulkERKSt3mapISsSsSt4lessISsESaISt4pairIKSsSsEEEbEN11VisitorImplD1Ev@Base 1.2.32
 _ZZN12kyotocabinet7BasicDB9incrementEPKcmlEN11VisitorImpl10visit_fullES2_mS2_mPm@Base 1.2.31
 _ZZN12kyotocabinet7BasicDB9incrementEPKcmlEN11VisitorImpl11visit_emptyES2_mPm@Base 1.2.31
 _ZZN12kyotocabinet7BasicDB9incrementEPKcmlEN11VisitorImpl3numEv@Base 1.2.31
 _ZZN12kyotocabinet7BasicDB9incrementEPKcmlEN11VisitorImplC1El@Base 1.2.31
 _ZZN12kyotocabinet7BasicDB9incrementEPKcmlEN11VisitorImplD0Ev@Base 1.2.31
 _ZZN12kyotocabinet7BasicDB9incrementEPKcmlEN11VisitorImplD1Ev@Base 1.2.31
 _ZZN12kyotocabinet7PlantDBINS_5DirDBELh65EE11synchronizeEbPNS_7BasicDB13FileProcessorEPNS3_15ProgressCheckerEEN7Wrapper7processERKSsll@Base 1.2.31
 _ZZN12kyotocabinet7PlantDBINS_5DirDBELh65EE11synchronizeEbPNS_7BasicDB13FileProcessorEPNS3_15ProgressCheckerEEN7WrapperC1ES5_l@Base 1.2.31
 _ZZN12kyotocabinet7PlantDBINS_5DirDBELh65EE11synchronizeEbPNS_7BasicDB13FileProcessorEPNS3_15ProgressCheckerEEN7WrapperD0Ev@Base 1.2.31
 _ZZN12kyotocabinet7PlantDBINS_5DirDBELh65EE11synchronizeEbPNS_7BasicDB13FileProcessorEPNS3_15ProgressCheckerEEN7WrapperD1Ev@Base 1.2.31
 _ZZN12kyotocabinet7PlantDBINS_5DirDBELh65EE12recalc_countEvEN11VisitorImpl10visit_fullEPKcmS5_mPm@Base 1.2.31
 _ZZN12kyotocabinet7PlantDBINS_5DirDBELh65EE12recalc_countEvEN11VisitorImpl5countEv@Base 1.2.31
 _ZZN12kyotocabinet7PlantDBINS_5DirDBELh65EE12recalc_countEvEN11VisitorImplC1Ev@Base 1.2.31
 _ZZN12kyotocabinet7PlantDBINS_5DirDBELh65EE12recalc_countEvEN11VisitorImplD0Ev@Base 1.2.31
 _ZZN12kyotocabinet7PlantDBINS_5DirDBELh65EE12recalc_countEvEN11VisitorImplD1Ev@Base 1.2.31
 _ZZN12kyotocabinet7PlantDBINS_5DirDBELh65EE14load_leaf_nodeElbEN11VisitorImpl10visit_fullEPKcmS5_mPm@Base 1.2.31
 _ZZN12kyotocabinet7PlantDBINS_5DirDBELh65EE14load_leaf_nodeElbEN11VisitorImpl3popEv@Base 1.2.31
 _ZZN12kyotocabinet7PlantDBINS_5DirDBELh65EE14load_leaf_nodeElbEN11VisitorImplC1Ev@Base 1.2.31
 _ZZN12kyotocabinet7PlantDBINS_5DirDBELh65EE14load_leaf_nodeElbEN11VisitorImplD0Ev@Base 1.2.31
 _ZZN12kyotocabinet7PlantDBINS_5DirDBELh65EE14load_leaf_nodeElbEN11VisitorImplD1Ev@Base 1.2.31
 _ZZN12kyotocabinet7PlantDBINS_5DirDBELh65EE15load_inner_nodeElEN11VisitorImpl10visit_fullEPKcmS5_mPm@Base 1.2.31
 _ZZN12kyotocabinet7PlantDBINS_5DirDBELh65EE15load_inner_nodeElEN11VisitorImpl3popEv@Base 1.2.31
 _ZZN12kyotocabinet7PlantDBINS_5DirDBELh65EE15load_inner_nodeElEN11VisitorImplC1Ev@Base 1.2.31
 _ZZN12kyotocabinet7PlantDBINS_5DirDBELh65EE15load_inner_nodeElEN11VisitorImplD0Ev@Base 1.2.31
 _ZZN12kyotocabinet7PlantDBINS_5DirDBELh65EE15load_inner_nodeElEN11VisitorImplD1Ev@Base 1.2.31
 _ZZN12kyotocabinet7PlantDBINS_6HashDBELh49EE11synchronizeEbPNS_7BasicDB13FileProcessorEPNS3_15ProgressCheckerEEN7Wrapper7processERKSsll@Base 1.2.31
 _ZZN12kyotocabinet7PlantDBINS_6HashDBELh49EE11synchronizeEbPNS_7BasicDB13FileProcessorEPNS3_15ProgressCheckerEEN7WrapperC1ES5_l@Base 1.2.31
 _ZZN12kyotocabinet7PlantDBINS_6HashDBELh49EE11synchronizeEbPNS_7BasicDB13FileProcessorEPNS3_15ProgressCheckerEEN7WrapperD0Ev@Base 1.2.31
 _ZZN12kyotocabinet7PlantDBINS_6HashDBELh49EE11synchronizeEbPNS_7BasicDB13FileProcessorEPNS3_15ProgressCheckerEEN7WrapperD1Ev@Base 1.2.31
 _ZZN12kyotocabinet7PlantDBINS_6HashDBELh49EE12recalc_countEvEN11VisitorImpl10visit_fullEPKcmS5_mPm@Base 1.2.31
 _ZZN12kyotocabinet7PlantDBINS_6HashDBELh49EE12recalc_countEvEN11VisitorImpl5countEv@Base 1.2.31
 _ZZN12kyotocabinet7PlantDBINS_6HashDBELh49EE12recalc_countEvEN11VisitorImplC1Ev@Base 1.2.31
 _ZZN12kyotocabinet7PlantDBINS_6HashDBELh49EE12recalc_countEvEN11VisitorImplD0Ev@Base 1.2.31
 _ZZN12kyotocabinet7PlantDBINS_6HashDBELh49EE12recalc_countEvEN11VisitorImplD1Ev@Base 1.2.31
 _ZZN12kyotocabinet7PlantDBINS_6HashDBELh49EE14load_leaf_nodeElbEN11VisitorImpl10visit_fullEPKcmS5_mPm@Base 1.2.31
 _ZZN12kyotocabinet7PlantDBINS_6HashDBELh49EE14load_leaf_nodeElbEN11VisitorImpl3popEv@Base 1.2.31
 _ZZN12kyotocabinet7PlantDBINS_6HashDBELh49EE14load_leaf_nodeElbEN11VisitorImplC1Ev@Base 1.2.31
 _ZZN12kyotocabinet7PlantDBINS_6HashDBELh49EE14load_leaf_nodeElbEN11VisitorImplD0Ev@Base 1.2.31
 _ZZN12kyotocabinet7PlantDBINS_6HashDBELh49EE14load_leaf_nodeElbEN11VisitorImplD1Ev@Base 1.2.31
 _ZZN12kyotocabinet7PlantDBINS_6HashDBELh49EE15load_inner_nodeElEN11VisitorImpl10visit_fullEPKcmS5_mPm@Base 1.2.31
 _ZZN12kyotocabinet7PlantDBINS_6HashDBELh49EE15load_inner_nodeElEN11VisitorImpl3popEv@Base 1.2.31
 _ZZN12kyotocabinet7PlantDBINS_6HashDBELh49EE15load_inner_nodeElEN11VisitorImplC1Ev@Base 1.2.31
 _ZZN12kyotocabinet7PlantDBINS_6HashDBELh49EE15load_inner_nodeElEN11VisitorImplD0Ev@Base 1.2.31
 _ZZN12kyotocabinet7PlantDBINS_6HashDBELh49EE15load_inner_nodeElEN11VisitorImplD1Ev@Base 1.2.31
 _ZZN12kyotocabinet7PlantDBINS_7CacheDBELh33EE11synchronizeEbPNS_7BasicDB13FileProcessorEPNS3_15ProgressCheckerEEN7Wrapper7processERKSsll@Base 1.2.31
 _ZZN12kyotocabinet7PlantDBINS_7CacheDBELh33EE11synchronizeEbPNS_7BasicDB13FileProcessorEPNS3_15ProgressCheckerEEN7WrapperC1ES5_l@Base 1.2.31
 _ZZN12kyotocabinet7PlantDBINS_7CacheDBELh33EE11synchronizeEbPNS_7BasicDB13FileProcessorEPNS3_15ProgressCheckerEEN7WrapperD0Ev@Base 1.2.31
 _ZZN12kyotocabinet7PlantDBINS_7CacheDBELh33EE11synchronizeEbPNS_7BasicDB13FileProcessorEPNS3_15ProgressCheckerEEN7WrapperD1Ev@Base 1.2.31
 _ZZN12kyotocabinet7PlantDBINS_7CacheDBELh33EE12recalc_countEvEN11VisitorImpl10visit_fullEPKcmS5_mPm@Base 1.2.31
 _ZZN12kyotocabinet7PlantDBINS_7CacheDBELh33EE12recalc_countEvEN11VisitorImpl5countEv@Base 1.2.31
 _ZZN12kyotocabinet7PlantDBINS_7CacheDBELh33EE12recalc_countEvEN11VisitorImplC1Ev@Base 1.2.31
 _ZZN12kyotocabinet7PlantDBINS_7CacheDBELh33EE12recalc_countEvEN11VisitorImplD0Ev@Base 1.2.31
 _ZZN12kyotocabinet7PlantDBINS_7CacheDBELh33EE12recalc_countEvEN11VisitorImplD1Ev@Base 1.2.31
 _ZZN12kyotocabinet7PlantDBINS_7CacheDBELh33EE14load_leaf_nodeElbEN11VisitorImpl10visit_fullEPKcmS5_mPm@Base 1.2.31
 _ZZN12kyotocabinet7PlantDBINS_7CacheDBELh33EE14load_leaf_nodeElbEN11VisitorImpl3popEv@Base 1.2.31
 _ZZN12kyotocabinet7PlantDBINS_7CacheDBELh33EE14load_leaf_nodeElbEN11VisitorImplC1Ev@Base 1.2.31
 _ZZN12kyotocabinet7PlantDBINS_7CacheDBELh33EE14load_leaf_nodeElbEN11VisitorImplD0Ev@Base 1.2.31
 _ZZN12kyotocabinet7PlantDBINS_7CacheDBELh33EE14load_leaf_nodeElbEN11VisitorImplD1Ev@Base 1.2.31
 _ZZN12kyotocabinet7PlantDBINS_7CacheDBELh33EE15load_inner_nodeElEN11VisitorImpl10visit_fullEPKcmS5_mPm@Base 1.2.31
 _ZZN12kyotocabinet7PlantDBINS_7CacheDBELh33EE15load_inner_nodeElEN11VisitorImpl3popEv@Base 1.2.31
 _ZZN12kyotocabinet7PlantDBINS_7CacheDBELh33EE15load_inner_nodeElEN11VisitorImplC1Ev@Base 1.2.31
 _ZZN12kyotocabinet7PlantDBINS_7CacheDBELh33EE15load_inner_nodeElEN11VisitorImplD0Ev@Base 1.2.31
 _ZZN12kyotocabinet7PlantDBINS_7CacheDBELh33EE15load_inner_nodeElEN11VisitorImplD1Ev@Base 1.2.31
 _ZdlPvS_@Base 1.2.31
 _ZnwmPv@Base 1.2.31
 kcatof@Base 1.2.31
 kcatoi@Base 1.2.31
 kcatoix@Base 1.2.31
 kcchkinf@Base 1.2.31
 kcchknan@Base 1.2.31
 kccuraccept@Base 1.2.31
 kccurdb@Base 1.2.31
 kccurdel@Base 1.2.31
 kccurecode@Base 1.2.31
 kccuremsg@Base 1.2.31
 kccurget@Base 1.2.31
 kccurgetkey@Base 1.2.31
 kccurgetvalue@Base 1.2.31
 kccurjump@Base 1.2.31
 kccurjumpback@Base 1.2.31
 kccurjumpbackkey@Base 1.2.31
 kccurjumpkey@Base 1.2.31
 kccurremove@Base 1.2.31
 kccursetvalue@Base 1.2.31
 kccurstep@Base 1.2.31
 kccurstepback@Base 1.2.31
 kcdbaccept@Base 1.2.31
 kcdbacceptbulk@Base 1.2.32
 kcdbadd@Base 1.2.31
 kcdbappend@Base 1.2.31
 kcdbbegintran@Base 1.2.31
 kcdbbegintrantry@Base 1.2.31
 kcdbcas@Base 1.2.31
 kcdbclear@Base 1.2.31
 kcdbclose@Base 1.2.31
 kcdbcopy@Base 1.2.31
 kcdbcount@Base 1.2.31
 kcdbcursor@Base 1.2.31
 kcdbdel@Base 1.2.31
 kcdbdumpsnap@Base 1.2.31
 kcdbecode@Base 1.2.31
 kcdbemsg@Base 1.2.31
 kcdbendtran@Base 1.2.31
 kcdbget@Base 1.2.31
 kcdbgetbuf@Base 1.2.31
 kcdbgetbulk@Base 1.2.32
 kcdbincrdouble@Base 1.2.31
 kcdbincrint@Base 1.2.31
 kcdbiterate@Base 1.2.31
 kcdbloadsnap@Base 1.2.31
 kcdbmatchprefix@Base 1.2.31
 kcdbmatchregex@Base 1.2.31
 kcdbmerge@Base 1.2.31
 kcdbnew@Base 1.2.31
 kcdbopen@Base 1.2.31
 kcdbpath@Base 1.2.31
 kcdbremove@Base 1.2.31
 kcdbremovebulk@Base 1.2.32
 kcdbreplace@Base 1.2.31
 kcdbset@Base 1.2.31
 kcdbsetbulk@Base 1.2.32
 kcdbsize@Base 1.2.31
 kcdbstatus@Base 1.2.31
 kcdbsync@Base 1.2.31
 kcecodename@Base 1.2.31
 kcfree@Base 1.2.31
 kchashfnv@Base 1.2.31
 kchashmurmur@Base 1.2.31
 kcinf@Base 1.2.31
 kcmalloc@Base 1.2.31
 kcnan@Base 1.2.31
 kctime@Base 1.2.31
